Archive member included to satisfy reference by file (symbol)

..\ultrasonic\libpico_ultrasonic_object.a(ultrasonicObject.cpp.obj)
                              CMakeFiles/objectExample.dir/objectExample.cpp.obj (Ultrasonic::Ultrasonic(int, int))
..\ultrasonic\libpico_ultrasonic_object.a(ultrasonic.c.obj)
                              ..\ultrasonic\libpico_ultrasonic_object.a(ultrasonicObject.cpp.obj) (setupUltrasonicPins)
c:/progra~2/gnuarm~1/102020~1/bin/../lib/gcc/arm-none-eabi/10.2.1/thumb/v6-m/nofp\libgcc.a(_dvmd_tls.o)
                              CMakeFiles/objectExample.dir/D_/Pico_Downloads/pico-sdk/src/rp2_common/pico_divider/divider.S.obj (__aeabi_idiv0)
c:/progra~2/gnuarm~1/102020~1/bin/../lib/gcc/arm-none-eabi/10.2.1/../../../../arm-none-eabi/lib/thumb/v6-m/nofp\libg.a(lib_a-calloc.o)
                              CMakeFiles/objectExample.dir/D_/Pico_Downloads/pico-sdk/src/rp2_common/pico_malloc/pico_malloc.c.obj (calloc)
c:/progra~2/gnuarm~1/102020~1/bin/../lib/gcc/arm-none-eabi/10.2.1/../../../../arm-none-eabi/lib/thumb/v6-m/nofp\libg.a(lib_a-callocr.o)
                              c:/progra~2/gnuarm~1/102020~1/bin/../lib/gcc/arm-none-eabi/10.2.1/../../../../arm-none-eabi/lib/thumb/v6-m/nofp\libg.a(lib_a-calloc.o) (_calloc_r)
c:/progra~2/gnuarm~1/102020~1/bin/../lib/gcc/arm-none-eabi/10.2.1/../../../../arm-none-eabi/lib/thumb/v6-m/nofp\libg.a(lib_a-ctype_.o)
                              CMakeFiles/objectExample.dir/D_/Pico_Downloads/pico-sdk/lib/tinyusb/src/tusb.c.obj (_ctype_)
c:/progra~2/gnuarm~1/102020~1/bin/../lib/gcc/arm-none-eabi/10.2.1/../../../../arm-none-eabi/lib/thumb/v6-m/nofp\libg.a(lib_a-impure.o)
                              c:/progra~2/gnuarm~1/102020~1/bin/../lib/gcc/arm-none-eabi/10.2.1/../../../../arm-none-eabi/lib/thumb/v6-m/nofp\libg.a(lib_a-calloc.o) (_impure_ptr)
c:/progra~2/gnuarm~1/102020~1/bin/../lib/gcc/arm-none-eabi/10.2.1/../../../../arm-none-eabi/lib/thumb/v6-m/nofp\libg.a(lib_a-init.o)
                              c:/progra~2/gnuarm~1/102020~1/bin/../lib/gcc/arm-none-eabi/10.2.1/../../../../arm-none-eabi/lib/thumb/v6-m/nofp/crt0.o (__libc_init_array)
c:/progra~2/gnuarm~1/102020~1/bin/../lib/gcc/arm-none-eabi/10.2.1/../../../../arm-none-eabi/lib/thumb/v6-m/nofp\libg.a(lib_a-malloc.o)
                              CMakeFiles/objectExample.dir/D_/Pico_Downloads/pico-sdk/src/rp2_common/pico_malloc/pico_malloc.c.obj (malloc)
c:/progra~2/gnuarm~1/102020~1/bin/../lib/gcc/arm-none-eabi/10.2.1/../../../../arm-none-eabi/lib/thumb/v6-m/nofp\libg.a(lib_a-mallocr.o)
                              c:/progra~2/gnuarm~1/102020~1/bin/../lib/gcc/arm-none-eabi/10.2.1/../../../../arm-none-eabi/lib/thumb/v6-m/nofp\libg.a(lib_a-callocr.o) (_malloc_r)
c:/progra~2/gnuarm~1/102020~1/bin/../lib/gcc/arm-none-eabi/10.2.1/../../../../arm-none-eabi/lib/thumb/v6-m/nofp\libg.a(lib_a-mlock.o)
                              c:/progra~2/gnuarm~1/102020~1/bin/../lib/gcc/arm-none-eabi/10.2.1/../../../../arm-none-eabi/lib/thumb/v6-m/nofp\libg.a(lib_a-mallocr.o) (__malloc_lock)
c:/progra~2/gnuarm~1/102020~1/bin/../lib/gcc/arm-none-eabi/10.2.1/../../../../arm-none-eabi/lib/thumb/v6-m/nofp\libg.a(lib_a-sbrkr.o)
                              c:/progra~2/gnuarm~1/102020~1/bin/../lib/gcc/arm-none-eabi/10.2.1/../../../../arm-none-eabi/lib/thumb/v6-m/nofp\libg.a(lib_a-mallocr.o) (_sbrk_r)
c:/progra~2/gnuarm~1/102020~1/bin/../lib/gcc/arm-none-eabi/10.2.1/../../../../arm-none-eabi/lib/thumb/v6-m/nofp\libg.a(lib_a-strlen-stub.o)
                              CMakeFiles/objectExample.dir/D_/Pico_Downloads/pico-sdk/src/rp2_common/pico_stdio/stdio.c.obj (strlen)
c:/progra~2/gnuarm~1/102020~1/bin/../lib/gcc/arm-none-eabi/10.2.1/../../../../arm-none-eabi/lib/thumb/v6-m/nofp\libg.a(lib_a-freer.o)
                              c:/progra~2/gnuarm~1/102020~1/bin/../lib/gcc/arm-none-eabi/10.2.1/../../../../arm-none-eabi/lib/thumb/v6-m/nofp\libg.a(lib_a-malloc.o) (_free_r)
c:/progra~2/gnuarm~1/102020~1/bin/../lib/gcc/arm-none-eabi/10.2.1/../../../../arm-none-eabi/lib/thumb/v6-m/nofp\libg.a(lib_a-lock.o)
                              c:/progra~2/gnuarm~1/102020~1/bin/../lib/gcc/arm-none-eabi/10.2.1/../../../../arm-none-eabi/lib/thumb/v6-m/nofp\libg.a(lib_a-mlock.o) (__retarget_lock_acquire_recursive)
c:/progra~2/gnuarm~1/102020~1/bin/../lib/gcc/arm-none-eabi/10.2.1/../../../../arm-none-eabi/lib/thumb/v6-m/nofp\libg.a(lib_a-reent.o)
                              c:/progra~2/gnuarm~1/102020~1/bin/../lib/gcc/arm-none-eabi/10.2.1/../../../../arm-none-eabi/lib/thumb/v6-m/nofp\libg.a(lib_a-sbrkr.o) (errno)

Discarded input sections

 .text          0x00000000        0x0 c:/progra~2/gnuarm~1/102020~1/bin/../lib/gcc/arm-none-eabi/10.2.1/thumb/v6-m/nofp/crti.o
 .data          0x00000000        0x0 c:/progra~2/gnuarm~1/102020~1/bin/../lib/gcc/arm-none-eabi/10.2.1/thumb/v6-m/nofp/crti.o
 .bss           0x00000000        0x0 c:/progra~2/gnuarm~1/102020~1/bin/../lib/gcc/arm-none-eabi/10.2.1/thumb/v6-m/nofp/crti.o
 .data          0x00000000        0x4 c:/progra~2/gnuarm~1/102020~1/bin/../lib/gcc/arm-none-eabi/10.2.1/thumb/v6-m/nofp/crtbegin.o
 .rodata        0x00000000       0x24 c:/progra~2/gnuarm~1/102020~1/bin/../lib/gcc/arm-none-eabi/10.2.1/thumb/v6-m/nofp/crtbegin.o
 .fini_array    0x00000000        0x4 c:/progra~2/gnuarm~1/102020~1/bin/../lib/gcc/arm-none-eabi/10.2.1/thumb/v6-m/nofp/crtbegin.o
 .text          0x00000000       0x80 c:/progra~2/gnuarm~1/102020~1/bin/../lib/gcc/arm-none-eabi/10.2.1/../../../../arm-none-eabi/lib/thumb/v6-m/nofp/crt0.o
 .data          0x00000000        0x0 c:/progra~2/gnuarm~1/102020~1/bin/../lib/gcc/arm-none-eabi/10.2.1/../../../../arm-none-eabi/lib/thumb/v6-m/nofp/crt0.o
 .bss           0x00000000        0x0 c:/progra~2/gnuarm~1/102020~1/bin/../lib/gcc/arm-none-eabi/10.2.1/../../../../arm-none-eabi/lib/thumb/v6-m/nofp/crt0.o
 .ARM.extab     0x00000000        0x0 c:/progra~2/gnuarm~1/102020~1/bin/../lib/gcc/arm-none-eabi/10.2.1/../../../../arm-none-eabi/lib/thumb/v6-m/nofp/crt0.o
 .ARM.exidx     0x00000000       0x10 c:/progra~2/gnuarm~1/102020~1/bin/../lib/gcc/arm-none-eabi/10.2.1/../../../../arm-none-eabi/lib/thumb/v6-m/nofp/crt0.o
 .ARM.attributes
                0x00000000       0x1b c:/progra~2/gnuarm~1/102020~1/bin/../lib/gcc/arm-none-eabi/10.2.1/../../../../arm-none-eabi/lib/thumb/v6-m/nofp/crt0.o
 .text          0x00000000        0x0 CMakeFiles/objectExample.dir/objectExample.cpp.obj
 .data          0x00000000        0x0 CMakeFiles/objectExample.dir/objectExample.cpp.obj
 .bss           0x00000000        0x0 CMakeFiles/objectExample.dir/objectExample.cpp.obj
 .text          0x00000000        0x0 CMakeFiles/objectExample.dir/D_/Pico_Downloads/pico-sdk/src/rp2_common/pico_stdlib/stdlib.c.obj
 .data          0x00000000        0x0 CMakeFiles/objectExample.dir/D_/Pico_Downloads/pico-sdk/src/rp2_common/pico_stdlib/stdlib.c.obj
 .bss           0x00000000        0x0 CMakeFiles/objectExample.dir/D_/Pico_Downloads/pico-sdk/src/rp2_common/pico_stdlib/stdlib.c.obj
 .text.set_sys_clock_48mhz
                0x00000000       0x40 CMakeFiles/objectExample.dir/D_/Pico_Downloads/pico-sdk/src/rp2_common/pico_stdlib/stdlib.c.obj
 .text.set_sys_clock_pll
                0x00000000       0x7c CMakeFiles/objectExample.dir/D_/Pico_Downloads/pico-sdk/src/rp2_common/pico_stdlib/stdlib.c.obj
 .text.check_sys_clock_khz
                0x00000000       0xb0 CMakeFiles/objectExample.dir/D_/Pico_Downloads/pico-sdk/src/rp2_common/pico_stdlib/stdlib.c.obj
 .text.setup_default_uart
                0x00000000       0x2c CMakeFiles/objectExample.dir/D_/Pico_Downloads/pico-sdk/src/rp2_common/pico_stdlib/stdlib.c.obj
 .binary_info.__bi_ptr102
                0x00000000        0x4 CMakeFiles/objectExample.dir/D_/Pico_Downloads/pico-sdk/src/rp2_common/pico_stdlib/stdlib.c.obj
 .rodata.__bi_102.0
                0x00000000        0x8 CMakeFiles/objectExample.dir/D_/Pico_Downloads/pico-sdk/src/rp2_common/pico_stdlib/stdlib.c.obj
 .debug_info    0x00000000      0x763 CMakeFiles/objectExample.dir/D_/Pico_Downloads/pico-sdk/src/rp2_common/pico_stdlib/stdlib.c.obj
 .debug_abbrev  0x00000000      0x1f0 CMakeFiles/objectExample.dir/D_/Pico_Downloads/pico-sdk/src/rp2_common/pico_stdlib/stdlib.c.obj
 .debug_loc     0x00000000      0x2d7 CMakeFiles/objectExample.dir/D_/Pico_Downloads/pico-sdk/src/rp2_common/pico_stdlib/stdlib.c.obj
 .debug_aranges
                0x00000000       0x38 CMakeFiles/objectExample.dir/D_/Pico_Downloads/pico-sdk/src/rp2_common/pico_stdlib/stdlib.c.obj
 .debug_ranges  0x00000000       0x98 CMakeFiles/objectExample.dir/D_/Pico_Downloads/pico-sdk/src/rp2_common/pico_stdlib/stdlib.c.obj
 .debug_line    0x00000000      0x52f CMakeFiles/objectExample.dir/D_/Pico_Downloads/pico-sdk/src/rp2_common/pico_stdlib/stdlib.c.obj
 .debug_str     0x00000000      0x521 CMakeFiles/objectExample.dir/D_/Pico_Downloads/pico-sdk/src/rp2_common/pico_stdlib/stdlib.c.obj
 .comment       0x00000000       0x4e CMakeFiles/objectExample.dir/D_/Pico_Downloads/pico-sdk/src/rp2_common/pico_stdlib/stdlib.c.obj
 .debug_frame   0x00000000       0x90 CMakeFiles/objectExample.dir/D_/Pico_Downloads/pico-sdk/src/rp2_common/pico_stdlib/stdlib.c.obj
 .ARM.attributes
                0x00000000       0x2b CMakeFiles/objectExample.dir/D_/Pico_Downloads/pico-sdk/src/rp2_common/pico_stdlib/stdlib.c.obj
 .text          0x00000000        0x0 CMakeFiles/objectExample.dir/D_/Pico_Downloads/pico-sdk/src/rp2_common/hardware_gpio/gpio.c.obj
 .data          0x00000000        0x0 CMakeFiles/objectExample.dir/D_/Pico_Downloads/pico-sdk/src/rp2_common/hardware_gpio/gpio.c.obj
 .bss           0x00000000        0x0 CMakeFiles/objectExample.dir/D_/Pico_Downloads/pico-sdk/src/rp2_common/hardware_gpio/gpio.c.obj
 .text.gpio_get_pad
                0x00000000       0x28 CMakeFiles/objectExample.dir/D_/Pico_Downloads/pico-sdk/src/rp2_common/hardware_gpio/gpio.c.obj
 .text.gpio_get_function
                0x00000000       0x14 CMakeFiles/objectExample.dir/D_/Pico_Downloads/pico-sdk/src/rp2_common/hardware_gpio/gpio.c.obj
 .text.gpio_set_pulls
                0x00000000       0x34 CMakeFiles/objectExample.dir/D_/Pico_Downloads/pico-sdk/src/rp2_common/hardware_gpio/gpio.c.obj
 .text.gpio_set_inover
                0x00000000       0x24 CMakeFiles/objectExample.dir/D_/Pico_Downloads/pico-sdk/src/rp2_common/hardware_gpio/gpio.c.obj
 .text.gpio_set_outover
                0x00000000       0x24 CMakeFiles/objectExample.dir/D_/Pico_Downloads/pico-sdk/src/rp2_common/hardware_gpio/gpio.c.obj
 .text.gpio_set_oeover
                0x00000000       0x24 CMakeFiles/objectExample.dir/D_/Pico_Downloads/pico-sdk/src/rp2_common/hardware_gpio/gpio.c.obj
 .text.gpio_acknowledge_irq
                0x00000000       0x18 CMakeFiles/objectExample.dir/D_/Pico_Downloads/pico-sdk/src/rp2_common/hardware_gpio/gpio.c.obj
 .text._gpio_set_irq_enabled
                0x00000000       0x34 CMakeFiles/objectExample.dir/D_/Pico_Downloads/pico-sdk/src/rp2_common/hardware_gpio/gpio.c.obj
 .text.gpio_set_irq_enabled
                0x00000000       0x20 CMakeFiles/objectExample.dir/D_/Pico_Downloads/pico-sdk/src/rp2_common/hardware_gpio/gpio.c.obj
 .text.gpio_set_irq_enabled_with_callback
                0x00000000       0x30 CMakeFiles/objectExample.dir/D_/Pico_Downloads/pico-sdk/src/rp2_common/hardware_gpio/gpio.c.obj
 .text.gpio_set_dormant_irq_enabled
                0x00000000       0x10 CMakeFiles/objectExample.dir/D_/Pico_Downloads/pico-sdk/src/rp2_common/hardware_gpio/gpio.c.obj
 .text.gpio_irq_handler
                0x00000000       0x68 CMakeFiles/objectExample.dir/D_/Pico_Downloads/pico-sdk/src/rp2_common/hardware_gpio/gpio.c.obj
 .text.gpio_set_input_enabled
                0x00000000       0x30 CMakeFiles/objectExample.dir/D_/Pico_Downloads/pico-sdk/src/rp2_common/hardware_gpio/gpio.c.obj
 .text.gpio_init_mask
                0x00000000       0x1e CMakeFiles/objectExample.dir/D_/Pico_Downloads/pico-sdk/src/rp2_common/hardware_gpio/gpio.c.obj
 .text.gpio_debug_pins_init
                0x00000000       0x20 CMakeFiles/objectExample.dir/D_/Pico_Downloads/pico-sdk/src/rp2_common/hardware_gpio/gpio.c.obj
 .rodata.str1.4
                0x00000000        0x6 CMakeFiles/objectExample.dir/D_/Pico_Downloads/pico-sdk/src/rp2_common/hardware_gpio/gpio.c.obj
 .binary_info.__bi_ptr144
                0x00000000        0x4 CMakeFiles/objectExample.dir/D_/Pico_Downloads/pico-sdk/src/rp2_common/hardware_gpio/gpio.c.obj
 .bss._callbacks
                0x00000000        0x8 CMakeFiles/objectExample.dir/D_/Pico_Downloads/pico-sdk/src/rp2_common/hardware_gpio/gpio.c.obj
 .rodata.__bi_144.0
                0x00000000        0xc CMakeFiles/objectExample.dir/D_/Pico_Downloads/pico-sdk/src/rp2_common/hardware_gpio/gpio.c.obj
 .text          0x00000000        0x0 CMakeFiles/objectExample.dir/D_/Pico_Downloads/pico-sdk/src/rp2_common/hardware_claim/claim.c.obj
 .data          0x00000000        0x0 CMakeFiles/objectExample.dir/D_/Pico_Downloads/pico-sdk/src/rp2_common/hardware_claim/claim.c.obj
 .bss           0x00000000        0x0 CMakeFiles/objectExample.dir/D_/Pico_Downloads/pico-sdk/src/rp2_common/hardware_claim/claim.c.obj
 .text.hw_is_claimed
                0x00000000       0x32 CMakeFiles/objectExample.dir/D_/Pico_Downloads/pico-sdk/src/rp2_common/hardware_claim/claim.c.obj
 .rodata.hw_claim_clear.str1.4
                0x00000000       0x75 CMakeFiles/objectExample.dir/D_/Pico_Downloads/pico-sdk/src/rp2_common/hardware_claim/claim.c.obj
 .text.hw_claim_clear
                0x00000000       0x44 CMakeFiles/objectExample.dir/D_/Pico_Downloads/pico-sdk/src/rp2_common/hardware_claim/claim.c.obj
 .rodata.__func__.0
                0x00000000        0xf CMakeFiles/objectExample.dir/D_/Pico_Downloads/pico-sdk/src/rp2_common/hardware_claim/claim.c.obj
 .text          0x00000000        0x0 CMakeFiles/objectExample.dir/D_/Pico_Downloads/pico-sdk/src/rp2_common/hardware_sync/sync.c.obj
 .data          0x00000000        0x0 CMakeFiles/objectExample.dir/D_/Pico_Downloads/pico-sdk/src/rp2_common/hardware_sync/sync.c.obj
 .bss           0x00000000        0x0 CMakeFiles/objectExample.dir/D_/Pico_Downloads/pico-sdk/src/rp2_common/hardware_sync/sync.c.obj
 .rodata.spin_lock_init.str1.4
                0x00000000       0x6b CMakeFiles/objectExample.dir/D_/Pico_Downloads/pico-sdk/src/rp2_common/hardware_sync/sync.c.obj
 .text.spin_lock_init
                0x00000000       0x34 CMakeFiles/objectExample.dir/D_/Pico_Downloads/pico-sdk/src/rp2_common/hardware_sync/sync.c.obj
 .rodata.spin_lock_claim.str1.4
                0x00000000       0x1f CMakeFiles/objectExample.dir/D_/Pico_Downloads/pico-sdk/src/rp2_common/hardware_sync/sync.c.obj
 .text.spin_lock_claim
                0x00000000       0x18 CMakeFiles/objectExample.dir/D_/Pico_Downloads/pico-sdk/src/rp2_common/hardware_sync/sync.c.obj
 .text.spin_lock_claim_mask
                0x00000000       0x1e CMakeFiles/objectExample.dir/D_/Pico_Downloads/pico-sdk/src/rp2_common/hardware_sync/sync.c.obj
 .text.spin_lock_unclaim
                0x00000000       0x10 CMakeFiles/objectExample.dir/D_/Pico_Downloads/pico-sdk/src/rp2_common/hardware_sync/sync.c.obj
 .rodata.__func__.0
                0x00000000        0xf CMakeFiles/objectExample.dir/D_/Pico_Downloads/pico-sdk/src/rp2_common/hardware_sync/sync.c.obj
 .text          0x00000000        0x0 CMakeFiles/objectExample.dir/D_/Pico_Downloads/pico-sdk/src/rp2_common/pico_platform/platform.c.obj
 .data          0x00000000        0x0 CMakeFiles/objectExample.dir/D_/Pico_Downloads/pico-sdk/src/rp2_common/pico_platform/platform.c.obj
 .bss           0x00000000        0x0 CMakeFiles/objectExample.dir/D_/Pico_Downloads/pico-sdk/src/rp2_common/pico_platform/platform.c.obj
 .rodata.rp2040_chip_version.str1.4
                0x00000000       0x79 CMakeFiles/objectExample.dir/D_/Pico_Downloads/pico-sdk/src/rp2_common/pico_platform/platform.c.obj
 .text.rp2040_chip_version
                0x00000000       0x4c CMakeFiles/objectExample.dir/D_/Pico_Downloads/pico-sdk/src/rp2_common/pico_platform/platform.c.obj
 .rodata.__func__.0
                0x00000000       0x14 CMakeFiles/objectExample.dir/D_/Pico_Downloads/pico-sdk/src/rp2_common/pico_platform/platform.c.obj
 .text          0x00000000        0x0 CMakeFiles/objectExample.dir/D_/Pico_Downloads/pico-sdk/src/rp2_common/hardware_uart/uart.c.obj
 .data          0x00000000        0x0 CMakeFiles/objectExample.dir/D_/Pico_Downloads/pico-sdk/src/rp2_common/hardware_uart/uart.c.obj
 .bss           0x00000000        0x0 CMakeFiles/objectExample.dir/D_/Pico_Downloads/pico-sdk/src/rp2_common/hardware_uart/uart.c.obj
 .text.uart_deinit
                0x00000000       0x20 CMakeFiles/objectExample.dir/D_/Pico_Downloads/pico-sdk/src/rp2_common/hardware_uart/uart.c.obj
 .text.uart_set_baudrate
                0x00000000       0x64 CMakeFiles/objectExample.dir/D_/Pico_Downloads/pico-sdk/src/rp2_common/hardware_uart/uart.c.obj
 .text.uart_set_translate_crlf
                0x00000000       0x28 CMakeFiles/objectExample.dir/D_/Pico_Downloads/pico-sdk/src/rp2_common/hardware_uart/uart.c.obj
 .text.uart_init
                0x00000000       0x80 CMakeFiles/objectExample.dir/D_/Pico_Downloads/pico-sdk/src/rp2_common/hardware_uart/uart.c.obj
 .text.uart_is_readable_within_us
                0x00000000       0x20 CMakeFiles/objectExample.dir/D_/Pico_Downloads/pico-sdk/src/rp2_common/hardware_uart/uart.c.obj
 .bss.uart_char_to_line_feed
                0x00000000        0x4 CMakeFiles/objectExample.dir/D_/Pico_Downloads/pico-sdk/src/rp2_common/hardware_uart/uart.c.obj
 .debug_info    0x00000000      0xb64 CMakeFiles/objectExample.dir/D_/Pico_Downloads/pico-sdk/src/rp2_common/hardware_uart/uart.c.obj
 .debug_abbrev  0x00000000      0x2ce CMakeFiles/objectExample.dir/D_/Pico_Downloads/pico-sdk/src/rp2_common/hardware_uart/uart.c.obj
 .debug_loc     0x00000000      0x51e CMakeFiles/objectExample.dir/D_/Pico_Downloads/pico-sdk/src/rp2_common/hardware_uart/uart.c.obj
 .debug_aranges
                0x00000000       0x40 CMakeFiles/objectExample.dir/D_/Pico_Downloads/pico-sdk/src/rp2_common/hardware_uart/uart.c.obj
 .debug_ranges  0x00000000       0xf8 CMakeFiles/objectExample.dir/D_/Pico_Downloads/pico-sdk/src/rp2_common/hardware_uart/uart.c.obj
 .debug_line    0x00000000      0x692 CMakeFiles/objectExample.dir/D_/Pico_Downloads/pico-sdk/src/rp2_common/hardware_uart/uart.c.obj
 .debug_str     0x00000000      0x53d CMakeFiles/objectExample.dir/D_/Pico_Downloads/pico-sdk/src/rp2_common/hardware_uart/uart.c.obj
 .comment       0x00000000       0x4e CMakeFiles/objectExample.dir/D_/Pico_Downloads/pico-sdk/src/rp2_common/hardware_uart/uart.c.obj
 .debug_frame   0x00000000       0x78 CMakeFiles/objectExample.dir/D_/Pico_Downloads/pico-sdk/src/rp2_common/hardware_uart/uart.c.obj
 .ARM.attributes
                0x00000000       0x2b CMakeFiles/objectExample.dir/D_/Pico_Downloads/pico-sdk/src/rp2_common/hardware_uart/uart.c.obj
 .text          0x00000000        0x0 CMakeFiles/objectExample.dir/D_/Pico_Downloads/pico-sdk/src/rp2_common/hardware_divider/divider.S.obj
 .data          0x00000000        0x0 CMakeFiles/objectExample.dir/D_/Pico_Downloads/pico-sdk/src/rp2_common/hardware_divider/divider.S.obj
 .bss           0x00000000        0x0 CMakeFiles/objectExample.dir/D_/Pico_Downloads/pico-sdk/src/rp2_common/hardware_divider/divider.S.obj
 .text.hw_divider_divmod_s32
                0x00000000       0x18 CMakeFiles/objectExample.dir/D_/Pico_Downloads/pico-sdk/src/rp2_common/hardware_divider/divider.S.obj
 .text.hw_divider_divmod_u32
                0x00000000       0x18 CMakeFiles/objectExample.dir/D_/Pico_Downloads/pico-sdk/src/rp2_common/hardware_divider/divider.S.obj
 .text.hw_divider_save_state
                0x00000000       0x1c CMakeFiles/objectExample.dir/D_/Pico_Downloads/pico-sdk/src/rp2_common/hardware_divider/divider.S.obj
 .text.hw_divider_restore_state
                0x00000000       0x14 CMakeFiles/objectExample.dir/D_/Pico_Downloads/pico-sdk/src/rp2_common/hardware_divider/divider.S.obj
 .debug_line    0x00000000       0xcb CMakeFiles/objectExample.dir/D_/Pico_Downloads/pico-sdk/src/rp2_common/hardware_divider/divider.S.obj
 .debug_info    0x00000000       0x22 CMakeFiles/objectExample.dir/D_/Pico_Downloads/pico-sdk/src/rp2_common/hardware_divider/divider.S.obj
 .debug_abbrev  0x00000000       0x12 CMakeFiles/objectExample.dir/D_/Pico_Downloads/pico-sdk/src/rp2_common/hardware_divider/divider.S.obj
 .debug_aranges
                0x00000000       0x38 CMakeFiles/objectExample.dir/D_/Pico_Downloads/pico-sdk/src/rp2_common/hardware_divider/divider.S.obj
 .debug_str     0x00000000       0x75 CMakeFiles/objectExample.dir/D_/Pico_Downloads/pico-sdk/src/rp2_common/hardware_divider/divider.S.obj
 .debug_ranges  0x00000000       0x30 CMakeFiles/objectExample.dir/D_/Pico_Downloads/pico-sdk/src/rp2_common/hardware_divider/divider.S.obj
 .ARM.attributes
                0x00000000       0x22 CMakeFiles/objectExample.dir/D_/Pico_Downloads/pico-sdk/src/rp2_common/hardware_divider/divider.S.obj
 .text          0x00000000        0x0 CMakeFiles/objectExample.dir/D_/Pico_Downloads/pico-sdk/src/common/pico_time/time.c.obj
 .data          0x00000000        0x0 CMakeFiles/objectExample.dir/D_/Pico_Downloads/pico-sdk/src/common/pico_time/time.c.obj
 .bss           0x00000000        0x0 CMakeFiles/objectExample.dir/D_/Pico_Downloads/pico-sdk/src/common/pico_time/time.c.obj
 .text.repeating_timer_callback
                0x00000000       0x1e CMakeFiles/objectExample.dir/D_/Pico_Downloads/pico-sdk/src/common/pico_time/time.c.obj
 .text.alarm_pool_dump_key
                0x00000000       0x70 CMakeFiles/objectExample.dir/D_/Pico_Downloads/pico-sdk/src/common/pico_time/time.c.obj
 .rodata.alarm_pool_destroy.str1.4
                0x00000000       0x28 CMakeFiles/objectExample.dir/D_/Pico_Downloads/pico-sdk/src/common/pico_time/time.c.obj
 .text.alarm_pool_destroy
                0x00000000       0x5c CMakeFiles/objectExample.dir/D_/Pico_Downloads/pico-sdk/src/common/pico_time/time.c.obj
 .text.alarm_pool_hardware_alarm_num
                0x00000000        0x4 CMakeFiles/objectExample.dir/D_/Pico_Downloads/pico-sdk/src/common/pico_time/time.c.obj
 .text.alarm_pool_add_repeating_timer_us
                0x00000000       0x74 CMakeFiles/objectExample.dir/D_/Pico_Downloads/pico-sdk/src/common/pico_time/time.c.obj
 .text.cancel_repeating_timer
                0x00000000       0x1a CMakeFiles/objectExample.dir/D_/Pico_Downloads/pico-sdk/src/common/pico_time/time.c.obj
 .text.alarm_pool_dump
                0x00000000       0x34 CMakeFiles/objectExample.dir/D_/Pico_Downloads/pico-sdk/src/common/pico_time/time.c.obj
 .rodata.__func__.1
                0x00000000       0x13 CMakeFiles/objectExample.dir/D_/Pico_Downloads/pico-sdk/src/common/pico_time/time.c.obj
 .rodata.at_the_end_of_time
                0x00000000        0x8 CMakeFiles/objectExample.dir/D_/Pico_Downloads/pico-sdk/src/common/pico_time/time.c.obj
 .rodata.nil_time
                0x00000000        0x8 CMakeFiles/objectExample.dir/D_/Pico_Downloads/pico-sdk/src/common/pico_time/time.c.obj
 .text          0x00000000        0x0 CMakeFiles/objectExample.dir/D_/Pico_Downloads/pico-sdk/src/common/pico_time/timeout_helper.c.obj
 .data          0x00000000        0x0 CMakeFiles/objectExample.dir/D_/Pico_Downloads/pico-sdk/src/common/pico_time/timeout_helper.c.obj
 .bss           0x00000000        0x0 CMakeFiles/objectExample.dir/D_/Pico_Downloads/pico-sdk/src/common/pico_time/timeout_helper.c.obj
 .text.check_per_iteration_timeout_us
                0x00000000       0x60 CMakeFiles/objectExample.dir/D_/Pico_Downloads/pico-sdk/src/common/pico_time/timeout_helper.c.obj
 .text.check_single_timeout_us
                0x00000000       0x2c CMakeFiles/objectExample.dir/D_/Pico_Downloads/pico-sdk/src/common/pico_time/timeout_helper.c.obj
 .text.init_single_timeout_until
                0x00000000        0xc CMakeFiles/objectExample.dir/D_/Pico_Downloads/pico-sdk/src/common/pico_time/timeout_helper.c.obj
 .text.init_per_iteration_timeout_us
                0x00000000       0x38 CMakeFiles/objectExample.dir/D_/Pico_Downloads/pico-sdk/src/common/pico_time/timeout_helper.c.obj
 .debug_info    0x00000000      0x70b CMakeFiles/objectExample.dir/D_/Pico_Downloads/pico-sdk/src/common/pico_time/timeout_helper.c.obj
 .debug_abbrev  0x00000000      0x232 CMakeFiles/objectExample.dir/D_/Pico_Downloads/pico-sdk/src/common/pico_time/timeout_helper.c.obj
 .debug_loc     0x00000000      0x35b CMakeFiles/objectExample.dir/D_/Pico_Downloads/pico-sdk/src/common/pico_time/timeout_helper.c.obj
 .debug_aranges
                0x00000000       0x38 CMakeFiles/objectExample.dir/D_/Pico_Downloads/pico-sdk/src/common/pico_time/timeout_helper.c.obj
 .debug_ranges  0x00000000       0x58 CMakeFiles/objectExample.dir/D_/Pico_Downloads/pico-sdk/src/common/pico_time/timeout_helper.c.obj
 .debug_line    0x00000000      0x491 CMakeFiles/objectExample.dir/D_/Pico_Downloads/pico-sdk/src/common/pico_time/timeout_helper.c.obj
 .debug_str     0x00000000      0x3c8 CMakeFiles/objectExample.dir/D_/Pico_Downloads/pico-sdk/src/common/pico_time/timeout_helper.c.obj
 .comment       0x00000000       0x4e CMakeFiles/objectExample.dir/D_/Pico_Downloads/pico-sdk/src/common/pico_time/timeout_helper.c.obj
 .debug_frame   0x00000000       0x6c CMakeFiles/objectExample.dir/D_/Pico_Downloads/pico-sdk/src/common/pico_time/timeout_helper.c.obj
 .ARM.attributes
                0x00000000       0x2b CMakeFiles/objectExample.dir/D_/Pico_Downloads/pico-sdk/src/common/pico_time/timeout_helper.c.obj
 .text          0x00000000        0x0 CMakeFiles/objectExample.dir/D_/Pico_Downloads/pico-sdk/src/rp2_common/hardware_timer/timer.c.obj
 .data          0x00000000        0x0 CMakeFiles/objectExample.dir/D_/Pico_Downloads/pico-sdk/src/rp2_common/hardware_timer/timer.c.obj
 .bss           0x00000000        0x0 CMakeFiles/objectExample.dir/D_/Pico_Downloads/pico-sdk/src/rp2_common/hardware_timer/timer.c.obj
 .text.hardware_alarm_unclaim
                0x00000000       0x10 CMakeFiles/objectExample.dir/D_/Pico_Downloads/pico-sdk/src/rp2_common/hardware_timer/timer.c.obj
 .text.busy_wait_us
                0x00000000       0x2c CMakeFiles/objectExample.dir/D_/Pico_Downloads/pico-sdk/src/rp2_common/hardware_timer/timer.c.obj
 .text.busy_wait_us_32
                0x00000000       0x24 CMakeFiles/objectExample.dir/D_/Pico_Downloads/pico-sdk/src/rp2_common/hardware_timer/timer.c.obj
 .text          0x00000000        0x0 CMakeFiles/objectExample.dir/D_/Pico_Downloads/pico-sdk/src/common/pico_sync/sem.c.obj
 .data          0x00000000        0x0 CMakeFiles/objectExample.dir/D_/Pico_Downloads/pico-sdk/src/common/pico_sync/sem.c.obj
 .bss           0x00000000        0x0 CMakeFiles/objectExample.dir/D_/Pico_Downloads/pico-sdk/src/common/pico_sync/sem.c.obj
 .text.sem_init
                0x00000000       0x1e CMakeFiles/objectExample.dir/D_/Pico_Downloads/pico-sdk/src/common/pico_sync/sem.c.obj
 .time_critical.sem_available
                0x00000000        0x6 CMakeFiles/objectExample.dir/D_/Pico_Downloads/pico-sdk/src/common/pico_sync/sem.c.obj
 .time_critical.sem_acquire_blocking
                0x00000000       0x3e CMakeFiles/objectExample.dir/D_/Pico_Downloads/pico-sdk/src/common/pico_sync/sem.c.obj
 .time_critical.sem_acquire_timeout_ms
                0x00000000       0xa8 CMakeFiles/objectExample.dir/D_/Pico_Downloads/pico-sdk/src/common/pico_sync/sem.c.obj
 .time_critical.sem_release
                0x00000000       0x3c CMakeFiles/objectExample.dir/D_/Pico_Downloads/pico-sdk/src/common/pico_sync/sem.c.obj
 .rodata.str1.4
                0x00000000       0x62 CMakeFiles/objectExample.dir/D_/Pico_Downloads/pico-sdk/src/common/pico_sync/sem.c.obj
 .time_critical.sem_reset
                0x00000000       0x54 CMakeFiles/objectExample.dir/D_/Pico_Downloads/pico-sdk/src/common/pico_sync/sem.c.obj
 .rodata.__func__.0
                0x00000000        0xa CMakeFiles/objectExample.dir/D_/Pico_Downloads/pico-sdk/src/common/pico_sync/sem.c.obj
 .debug_info    0x00000000      0xd2d CMakeFiles/objectExample.dir/D_/Pico_Downloads/pico-sdk/src/common/pico_sync/sem.c.obj
 .debug_abbrev  0x00000000      0x338 CMakeFiles/objectExample.dir/D_/Pico_Downloads/pico-sdk/src/common/pico_sync/sem.c.obj
 .debug_loc     0x00000000      0x685 CMakeFiles/objectExample.dir/D_/Pico_Downloads/pico-sdk/src/common/pico_sync/sem.c.obj
 .debug_aranges
                0x00000000       0x48 CMakeFiles/objectExample.dir/D_/Pico_Downloads/pico-sdk/src/common/pico_sync/sem.c.obj
 .debug_ranges  0x00000000      0x338 CMakeFiles/objectExample.dir/D_/Pico_Downloads/pico-sdk/src/common/pico_sync/sem.c.obj
 .debug_line    0x00000000      0x7a0 CMakeFiles/objectExample.dir/D_/Pico_Downloads/pico-sdk/src/common/pico_sync/sem.c.obj
 .debug_str     0x00000000      0x49a CMakeFiles/objectExample.dir/D_/Pico_Downloads/pico-sdk/src/common/pico_sync/sem.c.obj
 .comment       0x00000000       0x4e CMakeFiles/objectExample.dir/D_/Pico_Downloads/pico-sdk/src/common/pico_sync/sem.c.obj
 .debug_frame   0x00000000       0x94 CMakeFiles/objectExample.dir/D_/Pico_Downloads/pico-sdk/src/common/pico_sync/sem.c.obj
 .ARM.attributes
                0x00000000       0x2b CMakeFiles/objectExample.dir/D_/Pico_Downloads/pico-sdk/src/common/pico_sync/sem.c.obj
 .text          0x00000000        0x0 CMakeFiles/objectExample.dir/D_/Pico_Downloads/pico-sdk/src/common/pico_sync/lock_core.c.obj
 .data          0x00000000        0x0 CMakeFiles/objectExample.dir/D_/Pico_Downloads/pico-sdk/src/common/pico_sync/lock_core.c.obj
 .bss           0x00000000        0x0 CMakeFiles/objectExample.dir/D_/Pico_Downloads/pico-sdk/src/common/pico_sync/lock_core.c.obj
 .text          0x00000000        0x0 CMakeFiles/objectExample.dir/D_/Pico_Downloads/pico-sdk/src/common/pico_sync/mutex.c.obj
 .data          0x00000000        0x0 CMakeFiles/objectExample.dir/D_/Pico_Downloads/pico-sdk/src/common/pico_sync/mutex.c.obj
 .bss           0x00000000        0x0 CMakeFiles/objectExample.dir/D_/Pico_Downloads/pico-sdk/src/common/pico_sync/mutex.c.obj
 .text          0x00000000        0x0 CMakeFiles/objectExample.dir/D_/Pico_Downloads/pico-sdk/src/common/pico_sync/critical_section.c.obj
 .data          0x00000000        0x0 CMakeFiles/objectExample.dir/D_/Pico_Downloads/pico-sdk/src/common/pico_sync/critical_section.c.obj
 .bss           0x00000000        0x0 CMakeFiles/objectExample.dir/D_/Pico_Downloads/pico-sdk/src/common/pico_sync/critical_section.c.obj
 .text.critical_section_deinit
                0x00000000       0x18 CMakeFiles/objectExample.dir/D_/Pico_Downloads/pico-sdk/src/common/pico_sync/critical_section.c.obj
 .text          0x00000000        0x0 CMakeFiles/objectExample.dir/D_/Pico_Downloads/pico-sdk/src/common/pico_util/datetime.c.obj
 .data          0x00000000        0x0 CMakeFiles/objectExample.dir/D_/Pico_Downloads/pico-sdk/src/common/pico_util/datetime.c.obj
 .bss           0x00000000        0x0 CMakeFiles/objectExample.dir/D_/Pico_Downloads/pico-sdk/src/common/pico_util/datetime.c.obj
 .rodata.datetime_to_str.str1.4
                0x00000000       0x19 CMakeFiles/objectExample.dir/D_/Pico_Downloads/pico-sdk/src/common/pico_util/datetime.c.obj
 .text.datetime_to_str
                0x00000000       0x64 CMakeFiles/objectExample.dir/D_/Pico_Downloads/pico-sdk/src/common/pico_util/datetime.c.obj
 .rodata.str1.4
                0x00000000       0xad CMakeFiles/objectExample.dir/D_/Pico_Downloads/pico-sdk/src/common/pico_util/datetime.c.obj
 .rodata.DATETIME_DOWS
                0x00000000       0x1c CMakeFiles/objectExample.dir/D_/Pico_Downloads/pico-sdk/src/common/pico_util/datetime.c.obj
 .rodata.DATETIME_MONTHS
                0x00000000       0x30 CMakeFiles/objectExample.dir/D_/Pico_Downloads/pico-sdk/src/common/pico_util/datetime.c.obj
 .debug_info    0x00000000      0x21a CMakeFiles/objectExample.dir/D_/Pico_Downloads/pico-sdk/src/common/pico_util/datetime.c.obj
 .debug_abbrev  0x00000000      0x10b CMakeFiles/objectExample.dir/D_/Pico_Downloads/pico-sdk/src/common/pico_util/datetime.c.obj
 .debug_loc     0x00000000       0x7c CMakeFiles/objectExample.dir/D_/Pico_Downloads/pico-sdk/src/common/pico_util/datetime.c.obj
 .debug_aranges
                0x00000000       0x20 CMakeFiles/objectExample.dir/D_/Pico_Downloads/pico-sdk/src/common/pico_util/datetime.c.obj
 .debug_ranges  0x00000000       0x10 CMakeFiles/objectExample.dir/D_/Pico_Downloads/pico-sdk/src/common/pico_util/datetime.c.obj
 .debug_line    0x00000000      0x1a7 CMakeFiles/objectExample.dir/D_/Pico_Downloads/pico-sdk/src/common/pico_util/datetime.c.obj
 .debug_str     0x00000000      0x20d CMakeFiles/objectExample.dir/D_/Pico_Downloads/pico-sdk/src/common/pico_util/datetime.c.obj
 .comment       0x00000000       0x4e CMakeFiles/objectExample.dir/D_/Pico_Downloads/pico-sdk/src/common/pico_util/datetime.c.obj
 .debug_frame   0x00000000       0x38 CMakeFiles/objectExample.dir/D_/Pico_Downloads/pico-sdk/src/common/pico_util/datetime.c.obj
 .ARM.attributes
                0x00000000       0x2b CMakeFiles/objectExample.dir/D_/Pico_Downloads/pico-sdk/src/common/pico_util/datetime.c.obj
 .text          0x00000000        0x0 CMakeFiles/objectExample.dir/D_/Pico_Downloads/pico-sdk/src/common/pico_util/pheap.c.obj
 .data          0x00000000        0x0 CMakeFiles/objectExample.dir/D_/Pico_Downloads/pico-sdk/src/common/pico_util/pheap.c.obj
 .bss           0x00000000        0x0 CMakeFiles/objectExample.dir/D_/Pico_Downloads/pico-sdk/src/common/pico_util/pheap.c.obj
 .rodata.ph_dump_node.str1.4
                0x00000000       0x15 CMakeFiles/objectExample.dir/D_/Pico_Downloads/pico-sdk/src/common/pico_util/pheap.c.obj
 .text.ph_dump_node
                0x00000000       0xb4 CMakeFiles/objectExample.dir/D_/Pico_Downloads/pico-sdk/src/common/pico_util/pheap.c.obj
 .text.ph_destroy
                0x00000000       0x12 CMakeFiles/objectExample.dir/D_/Pico_Downloads/pico-sdk/src/common/pico_util/pheap.c.obj
 .rodata.ph_dump.str1.4
                0x00000000        0xf CMakeFiles/objectExample.dir/D_/Pico_Downloads/pico-sdk/src/common/pico_util/pheap.c.obj
 .text.ph_dump  0x00000000       0x24 CMakeFiles/objectExample.dir/D_/Pico_Downloads/pico-sdk/src/common/pico_util/pheap.c.obj
 .text          0x00000000        0x0 CMakeFiles/objectExample.dir/D_/Pico_Downloads/pico-sdk/src/common/pico_util/queue.c.obj
 .data          0x00000000        0x0 CMakeFiles/objectExample.dir/D_/Pico_Downloads/pico-sdk/src/common/pico_util/queue.c.obj
 .bss           0x00000000        0x0 CMakeFiles/objectExample.dir/D_/Pico_Downloads/pico-sdk/src/common/pico_util/queue.c.obj
 .text.queue_init_with_spinlock
                0x00000000       0x2c CMakeFiles/objectExample.dir/D_/Pico_Downloads/pico-sdk/src/common/pico_util/queue.c.obj
 .text.queue_free
                0x00000000        0xa CMakeFiles/objectExample.dir/D_/Pico_Downloads/pico-sdk/src/common/pico_util/queue.c.obj
 .rodata.queue_try_add.str1.4
                0x00000000       0x54 CMakeFiles/objectExample.dir/D_/Pico_Downloads/pico-sdk/src/common/pico_util/queue.c.obj
 .text.queue_try_add
                0x00000000       0x84 CMakeFiles/objectExample.dir/D_/Pico_Downloads/pico-sdk/src/common/pico_util/queue.c.obj
 .text.queue_try_remove
                0x00000000       0x84 CMakeFiles/objectExample.dir/D_/Pico_Downloads/pico-sdk/src/common/pico_util/queue.c.obj
 .text.queue_try_peek
                0x00000000       0x70 CMakeFiles/objectExample.dir/D_/Pico_Downloads/pico-sdk/src/common/pico_util/queue.c.obj
 .text.queue_add_blocking
                0x00000000       0x18 CMakeFiles/objectExample.dir/D_/Pico_Downloads/pico-sdk/src/common/pico_util/queue.c.obj
 .text.queue_remove_blocking
                0x00000000       0x18 CMakeFiles/objectExample.dir/D_/Pico_Downloads/pico-sdk/src/common/pico_util/queue.c.obj
 .text.queue_peek_blocking
                0x00000000       0x18 CMakeFiles/objectExample.dir/D_/Pico_Downloads/pico-sdk/src/common/pico_util/queue.c.obj
 .rodata.__func__.0
                0x00000000        0xc CMakeFiles/objectExample.dir/D_/Pico_Downloads/pico-sdk/src/common/pico_util/queue.c.obj
 .debug_info    0x00000000      0xd07 CMakeFiles/objectExample.dir/D_/Pico_Downloads/pico-sdk/src/common/pico_util/queue.c.obj
 .debug_abbrev  0x00000000      0x29d CMakeFiles/objectExample.dir/D_/Pico_Downloads/pico-sdk/src/common/pico_util/queue.c.obj
 .debug_loc     0x00000000      0xabc CMakeFiles/objectExample.dir/D_/Pico_Downloads/pico-sdk/src/common/pico_util/queue.c.obj
 .debug_aranges
                0x00000000       0x58 CMakeFiles/objectExample.dir/D_/Pico_Downloads/pico-sdk/src/common/pico_util/queue.c.obj
 .debug_ranges  0x00000000      0x2b8 CMakeFiles/objectExample.dir/D_/Pico_Downloads/pico-sdk/src/common/pico_util/queue.c.obj
 .debug_line    0x00000000      0x756 CMakeFiles/objectExample.dir/D_/Pico_Downloads/pico-sdk/src/common/pico_util/queue.c.obj
 .debug_str     0x00000000      0x421 CMakeFiles/objectExample.dir/D_/Pico_Downloads/pico-sdk/src/common/pico_util/queue.c.obj
 .comment       0x00000000       0x4e CMakeFiles/objectExample.dir/D_/Pico_Downloads/pico-sdk/src/common/pico_util/queue.c.obj
 .debug_frame   0x00000000       0xec CMakeFiles/objectExample.dir/D_/Pico_Downloads/pico-sdk/src/common/pico_util/queue.c.obj
 .ARM.attributes
                0x00000000       0x2b CMakeFiles/objectExample.dir/D_/Pico_Downloads/pico-sdk/src/common/pico_util/queue.c.obj
 .text          0x00000000        0x0 CMakeFiles/objectExample.dir/D_/Pico_Downloads/pico-sdk/src/rp2_common/pico_runtime/runtime.c.obj
 .data          0x00000000        0x0 CMakeFiles/objectExample.dir/D_/Pico_Downloads/pico-sdk/src/rp2_common/pico_runtime/runtime.c.obj
 .bss           0x00000000        0x0 CMakeFiles/objectExample.dir/D_/Pico_Downloads/pico-sdk/src/rp2_common/pico_runtime/runtime.c.obj
 .text.runtime_install_stack_guard
                0x00000000       0x40 CMakeFiles/objectExample.dir/D_/Pico_Downloads/pico-sdk/src/rp2_common/pico_runtime/runtime.c.obj
 .rodata.panic_unsupported.str1.4
                0x00000000        0xe CMakeFiles/objectExample.dir/D_/Pico_Downloads/pico-sdk/src/rp2_common/pico_runtime/runtime.c.obj
 .text.panic_unsupported
                0x00000000        0xc CMakeFiles/objectExample.dir/D_/Pico_Downloads/pico-sdk/src/rp2_common/pico_runtime/runtime.c.obj
 .rodata.hard_assertion_failure.str1.4
                0x00000000        0xc CMakeFiles/objectExample.dir/D_/Pico_Downloads/pico-sdk/src/rp2_common/pico_runtime/runtime.c.obj
 .text.hard_assertion_failure
                0x00000000        0xc CMakeFiles/objectExample.dir/D_/Pico_Downloads/pico-sdk/src/rp2_common/pico_runtime/runtime.c.obj
 .text          0x00000000        0x0 CMakeFiles/objectExample.dir/D_/Pico_Downloads/pico-sdk/src/rp2_common/hardware_clocks/clocks.c.obj
 .data          0x00000000        0x0 CMakeFiles/objectExample.dir/D_/Pico_Downloads/pico-sdk/src/rp2_common/hardware_clocks/clocks.c.obj
 .bss           0x00000000        0x0 CMakeFiles/objectExample.dir/D_/Pico_Downloads/pico-sdk/src/rp2_common/hardware_clocks/clocks.c.obj
 .text.clock_stop
                0x00000000       0x2c CMakeFiles/objectExample.dir/D_/Pico_Downloads/pico-sdk/src/rp2_common/hardware_clocks/clocks.c.obj
 .text.clock_get_hz
                0x00000000        0xc CMakeFiles/objectExample.dir/D_/Pico_Downloads/pico-sdk/src/rp2_common/hardware_clocks/clocks.c.obj
 .rodata.clocks_handle_resus.str1.4
                0x00000000       0x8b CMakeFiles/objectExample.dir/D_/Pico_Downloads/pico-sdk/src/rp2_common/hardware_clocks/clocks.c.obj
 .text.clocks_handle_resus
                0x00000000       0x80 CMakeFiles/objectExample.dir/D_/Pico_Downloads/pico-sdk/src/rp2_common/hardware_clocks/clocks.c.obj
 .rodata.clocks_irq_handler.str1.4
                0x00000000       0x17 CMakeFiles/objectExample.dir/D_/Pico_Downloads/pico-sdk/src/rp2_common/hardware_clocks/clocks.c.obj
 .text.clocks_irq_handler
                0x00000000       0x2c CMakeFiles/objectExample.dir/D_/Pico_Downloads/pico-sdk/src/rp2_common/hardware_clocks/clocks.c.obj
 .text.clock_set_reported_hz
                0x00000000        0xc CMakeFiles/objectExample.dir/D_/Pico_Downloads/pico-sdk/src/rp2_common/hardware_clocks/clocks.c.obj
 .text.frequency_count_khz
                0x00000000       0x40 CMakeFiles/objectExample.dir/D_/Pico_Downloads/pico-sdk/src/rp2_common/hardware_clocks/clocks.c.obj
 .text.clocks_enable_resus
                0x00000000       0x34 CMakeFiles/objectExample.dir/D_/Pico_Downloads/pico-sdk/src/rp2_common/hardware_clocks/clocks.c.obj
 .text.clock_gpio_init
                0x00000000       0x4c CMakeFiles/objectExample.dir/D_/Pico_Downloads/pico-sdk/src/rp2_common/hardware_clocks/clocks.c.obj
 .text.clock_configure_gpin
                0x00000000       0x5c CMakeFiles/objectExample.dir/D_/Pico_Downloads/pico-sdk/src/rp2_common/hardware_clocks/clocks.c.obj
 .bss._resus_callback
                0x00000000        0x4 CMakeFiles/objectExample.dir/D_/Pico_Downloads/pico-sdk/src/rp2_common/hardware_clocks/clocks.c.obj
 .rodata.__func__.0
                0x00000000       0x14 CMakeFiles/objectExample.dir/D_/Pico_Downloads/pico-sdk/src/rp2_common/hardware_clocks/clocks.c.obj
 .rodata.gpin0_src
                0x00000000        0xa CMakeFiles/objectExample.dir/D_/Pico_Downloads/pico-sdk/src/rp2_common/hardware_clocks/clocks.c.obj
 .text          0x00000000        0x0 CMakeFiles/objectExample.dir/D_/Pico_Downloads/pico-sdk/src/rp2_common/hardware_watchdog/watchdog.c.obj
 .data          0x00000000        0x0 CMakeFiles/objectExample.dir/D_/Pico_Downloads/pico-sdk/src/rp2_common/hardware_watchdog/watchdog.c.obj
 .bss           0x00000000        0x0 CMakeFiles/objectExample.dir/D_/Pico_Downloads/pico-sdk/src/rp2_common/hardware_watchdog/watchdog.c.obj
 .text.watchdog_update
                0x00000000       0x14 CMakeFiles/objectExample.dir/D_/Pico_Downloads/pico-sdk/src/rp2_common/hardware_watchdog/watchdog.c.obj
 .text.watchdog_get_count
                0x00000000       0x10 CMakeFiles/objectExample.dir/D_/Pico_Downloads/pico-sdk/src/rp2_common/hardware_watchdog/watchdog.c.obj
 .text._watchdog_enable
                0x00000000       0x70 CMakeFiles/objectExample.dir/D_/Pico_Downloads/pico-sdk/src/rp2_common/hardware_watchdog/watchdog.c.obj
 .text.watchdog_enable
                0x00000000       0x14 CMakeFiles/objectExample.dir/D_/Pico_Downloads/pico-sdk/src/rp2_common/hardware_watchdog/watchdog.c.obj
 .text.watchdog_reboot
                0x00000000       0x48 CMakeFiles/objectExample.dir/D_/Pico_Downloads/pico-sdk/src/rp2_common/hardware_watchdog/watchdog.c.obj
 .text.watchdog_caused_reboot
                0x00000000       0x10 CMakeFiles/objectExample.dir/D_/Pico_Downloads/pico-sdk/src/rp2_common/hardware_watchdog/watchdog.c.obj
 .bss.load_value
                0x00000000        0x4 CMakeFiles/objectExample.dir/D_/Pico_Downloads/pico-sdk/src/rp2_common/hardware_watchdog/watchdog.c.obj
 .text          0x00000000        0x0 CMakeFiles/objectExample.dir/D_/Pico_Downloads/pico-sdk/src/rp2_common/hardware_xosc/xosc.c.obj
 .data          0x00000000        0x0 CMakeFiles/objectExample.dir/D_/Pico_Downloads/pico-sdk/src/rp2_common/hardware_xosc/xosc.c.obj
 .bss           0x00000000        0x0 CMakeFiles/objectExample.dir/D_/Pico_Downloads/pico-sdk/src/rp2_common/hardware_xosc/xosc.c.obj
 .text.xosc_disable
                0x00000000       0x24 CMakeFiles/objectExample.dir/D_/Pico_Downloads/pico-sdk/src/rp2_common/hardware_xosc/xosc.c.obj
 .text.xosc_dormant
                0x00000000       0x18 CMakeFiles/objectExample.dir/D_/Pico_Downloads/pico-sdk/src/rp2_common/hardware_xosc/xosc.c.obj
 .text          0x00000000        0x0 CMakeFiles/objectExample.dir/D_/Pico_Downloads/pico-sdk/src/rp2_common/hardware_pll/pll.c.obj
 .data          0x00000000        0x0 CMakeFiles/objectExample.dir/D_/Pico_Downloads/pico-sdk/src/rp2_common/hardware_pll/pll.c.obj
 .bss           0x00000000        0x0 CMakeFiles/objectExample.dir/D_/Pico_Downloads/pico-sdk/src/rp2_common/hardware_pll/pll.c.obj
 .text.pll_deinit
                0x00000000        0x6 CMakeFiles/objectExample.dir/D_/Pico_Downloads/pico-sdk/src/rp2_common/hardware_pll/pll.c.obj
 .text          0x00000000        0x0 CMakeFiles/objectExample.dir/D_/Pico_Downloads/pico-sdk/src/rp2_common/hardware_vreg/vreg.c.obj
 .data          0x00000000        0x0 CMakeFiles/objectExample.dir/D_/Pico_Downloads/pico-sdk/src/rp2_common/hardware_vreg/vreg.c.obj
 .bss           0x00000000        0x0 CMakeFiles/objectExample.dir/D_/Pico_Downloads/pico-sdk/src/rp2_common/hardware_vreg/vreg.c.obj
 .text.vreg_set_voltage
                0x00000000       0x1c CMakeFiles/objectExample.dir/D_/Pico_Downloads/pico-sdk/src/rp2_common/hardware_vreg/vreg.c.obj
 .debug_info    0x00000000      0x244 CMakeFiles/objectExample.dir/D_/Pico_Downloads/pico-sdk/src/rp2_common/hardware_vreg/vreg.c.obj
 .debug_abbrev  0x00000000      0x11d CMakeFiles/objectExample.dir/D_/Pico_Downloads/pico-sdk/src/rp2_common/hardware_vreg/vreg.c.obj
 .debug_loc     0x00000000       0x9a CMakeFiles/objectExample.dir/D_/Pico_Downloads/pico-sdk/src/rp2_common/hardware_vreg/vreg.c.obj
 .debug_aranges
                0x00000000       0x20 CMakeFiles/objectExample.dir/D_/Pico_Downloads/pico-sdk/src/rp2_common/hardware_vreg/vreg.c.obj
 .debug_ranges  0x00000000       0x10 CMakeFiles/objectExample.dir/D_/Pico_Downloads/pico-sdk/src/rp2_common/hardware_vreg/vreg.c.obj
 .debug_line    0x00000000      0x229 CMakeFiles/objectExample.dir/D_/Pico_Downloads/pico-sdk/src/rp2_common/hardware_vreg/vreg.c.obj
 .debug_str     0x00000000      0x32a CMakeFiles/objectExample.dir/D_/Pico_Downloads/pico-sdk/src/rp2_common/hardware_vreg/vreg.c.obj
 .comment       0x00000000       0x4e CMakeFiles/objectExample.dir/D_/Pico_Downloads/pico-sdk/src/rp2_common/hardware_vreg/vreg.c.obj
 .debug_frame   0x00000000       0x20 CMakeFiles/objectExample.dir/D_/Pico_Downloads/pico-sdk/src/rp2_common/hardware_vreg/vreg.c.obj
 .ARM.attributes
                0x00000000       0x2b CMakeFiles/objectExample.dir/D_/Pico_Downloads/pico-sdk/src/rp2_common/hardware_vreg/vreg.c.obj
 .text          0x00000000        0x0 CMakeFiles/objectExample.dir/D_/Pico_Downloads/pico-sdk/src/rp2_common/hardware_irq/irq.c.obj
 .data          0x00000000        0x0 CMakeFiles/objectExample.dir/D_/Pico_Downloads/pico-sdk/src/rp2_common/hardware_irq/irq.c.obj
 .bss           0x00000000        0x0 CMakeFiles/objectExample.dir/D_/Pico_Downloads/pico-sdk/src/rp2_common/hardware_irq/irq.c.obj
 .text.irq_get_exclusive_handler
                0x00000000       0x4c CMakeFiles/objectExample.dir/D_/Pico_Downloads/pico-sdk/src/rp2_common/hardware_irq/irq.c.obj
 .text.irq_add_shared_handler
                0x00000000      0x230 CMakeFiles/objectExample.dir/D_/Pico_Downloads/pico-sdk/src/rp2_common/hardware_irq/irq.c.obj
 .rodata.__func__.5
                0x00000000       0x17 CMakeFiles/objectExample.dir/D_/Pico_Downloads/pico-sdk/src/rp2_common/hardware_irq/irq.c.obj
 .text          0x00000000        0x0 CMakeFiles/objectExample.dir/D_/Pico_Downloads/pico-sdk/src/rp2_common/hardware_irq/irq_handler_chain.S.obj
 .bss           0x00000000        0x0 CMakeFiles/objectExample.dir/D_/Pico_Downloads/pico-sdk/src/rp2_common/hardware_irq/irq_handler_chain.S.obj
 .text          0x00000000        0x0 CMakeFiles/objectExample.dir/D_/Pico_Downloads/pico-sdk/src/rp2_common/pico_printf/printf.c.obj
 .data          0x00000000        0x0 CMakeFiles/objectExample.dir/D_/Pico_Downloads/pico-sdk/src/rp2_common/pico_printf/printf.c.obj
 .bss           0x00000000        0x0 CMakeFiles/objectExample.dir/D_/Pico_Downloads/pico-sdk/src/rp2_common/pico_printf/printf.c.obj
 .text._out_buffer
                0x00000000        0x8 CMakeFiles/objectExample.dir/D_/Pico_Downloads/pico-sdk/src/rp2_common/pico_printf/printf.c.obj
 .text.__wrap_sprintf
                0x00000000       0x28 CMakeFiles/objectExample.dir/D_/Pico_Downloads/pico-sdk/src/rp2_common/pico_printf/printf.c.obj
 .text.__wrap_snprintf
                0x00000000       0x28 CMakeFiles/objectExample.dir/D_/Pico_Downloads/pico-sdk/src/rp2_common/pico_printf/printf.c.obj
 .text.__wrap_vsnprintf
                0x00000000       0x1c CMakeFiles/objectExample.dir/D_/Pico_Downloads/pico-sdk/src/rp2_common/pico_printf/printf.c.obj
 .data          0x00000000        0x0 CMakeFiles/objectExample.dir/D_/Pico_Downloads/pico-sdk/src/rp2_common/pico_bit_ops/bit_ops_aeabi.S.obj
 .bss           0x00000000        0x0 CMakeFiles/objectExample.dir/D_/Pico_Downloads/pico-sdk/src/rp2_common/pico_bit_ops/bit_ops_aeabi.S.obj
 .text.clzsi    0x00000000        0xc CMakeFiles/objectExample.dir/D_/Pico_Downloads/pico-sdk/src/rp2_common/pico_bit_ops/bit_ops_aeabi.S.obj
 .text.ctzsi    0x00000000        0xc CMakeFiles/objectExample.dir/D_/Pico_Downloads/pico-sdk/src/rp2_common/pico_bit_ops/bit_ops_aeabi.S.obj
 .text.popcountsi
                0x00000000        0xc CMakeFiles/objectExample.dir/D_/Pico_Downloads/pico-sdk/src/rp2_common/pico_bit_ops/bit_ops_aeabi.S.obj
 .text.clzdi    0x00000000       0x18 CMakeFiles/objectExample.dir/D_/Pico_Downloads/pico-sdk/src/rp2_common/pico_bit_ops/bit_ops_aeabi.S.obj
 .text.ctzdi    0x00000000       0x18 CMakeFiles/objectExample.dir/D_/Pico_Downloads/pico-sdk/src/rp2_common/pico_bit_ops/bit_ops_aeabi.S.obj
 .text.popcountdi
                0x00000000       0x18 CMakeFiles/objectExample.dir/D_/Pico_Downloads/pico-sdk/src/rp2_common/pico_bit_ops/bit_ops_aeabi.S.obj
 .text.reverse32
                0x00000000        0xc CMakeFiles/objectExample.dir/D_/Pico_Downloads/pico-sdk/src/rp2_common/pico_bit_ops/bit_ops_aeabi.S.obj
 .text.__rev    0x00000000        0xc CMakeFiles/objectExample.dir/D_/Pico_Downloads/pico-sdk/src/rp2_common/pico_bit_ops/bit_ops_aeabi.S.obj
 .text.__revll  0x00000000       0x18 CMakeFiles/objectExample.dir/D_/Pico_Downloads/pico-sdk/src/rp2_common/pico_bit_ops/bit_ops_aeabi.S.obj
 .text          0x00000000        0x0 CMakeFiles/objectExample.dir/D_/Pico_Downloads/pico-sdk/src/rp2_common/pico_bootrom/bootrom.c.obj
 .data          0x00000000        0x0 CMakeFiles/objectExample.dir/D_/Pico_Downloads/pico-sdk/src/rp2_common/pico_bootrom/bootrom.c.obj
 .bss           0x00000000        0x0 CMakeFiles/objectExample.dir/D_/Pico_Downloads/pico-sdk/src/rp2_common/pico_bootrom/bootrom.c.obj
 .text          0x00000000        0x0 CMakeFiles/objectExample.dir/D_/Pico_Downloads/pico-sdk/src/rp2_common/pico_divider/divider.S.obj
 .data          0x00000000        0x0 CMakeFiles/objectExample.dir/D_/Pico_Downloads/pico-sdk/src/rp2_common/pico_divider/divider.S.obj
 .bss           0x00000000        0x0 CMakeFiles/objectExample.dir/D_/Pico_Downloads/pico-sdk/src/rp2_common/pico_divider/divider.S.obj
 .text.divmod_s64s64_rem
                0x00000000        0xc CMakeFiles/objectExample.dir/D_/Pico_Downloads/pico-sdk/src/rp2_common/pico_divider/divider.S.obj
 .text.divmod_u64u64_rem
                0x00000000        0xc CMakeFiles/objectExample.dir/D_/Pico_Downloads/pico-sdk/src/rp2_common/pico_divider/divider.S.obj
 .text          0x00000000        0x0 CMakeFiles/objectExample.dir/D_/Pico_Downloads/pico-sdk/src/rp2_common/pico_double/double_aeabi.S.obj
 .data          0x00000000        0x0 CMakeFiles/objectExample.dir/D_/Pico_Downloads/pico-sdk/src/rp2_common/pico_double/double_aeabi.S.obj
 .bss           0x00000000        0x0 CMakeFiles/objectExample.dir/D_/Pico_Downloads/pico-sdk/src/rp2_common/pico_double/double_aeabi.S.obj
 .text.push_r8_r11
                0x00000000        0xc CMakeFiles/objectExample.dir/D_/Pico_Downloads/pico-sdk/src/rp2_common/pico_double/double_aeabi.S.obj
 .text.pop_r8_r11
                0x00000000        0xc CMakeFiles/objectExample.dir/D_/Pico_Downloads/pico-sdk/src/rp2_common/pico_double/double_aeabi.S.obj
 .text.__wrap___aeabi_dcmpeq
                0x00000000       0x10 CMakeFiles/objectExample.dir/D_/Pico_Downloads/pico-sdk/src/rp2_common/pico_double/double_aeabi.S.obj
 .text.__wrap___aeabi_ui2d
                0x00000000       0x18 CMakeFiles/objectExample.dir/D_/Pico_Downloads/pico-sdk/src/rp2_common/pico_double/double_aeabi.S.obj
 .text.double2int
                0x00000000       0x18 CMakeFiles/objectExample.dir/D_/Pico_Downloads/pico-sdk/src/rp2_common/pico_double/double_aeabi.S.obj
 .text.fix2double
                0x00000000       0x18 CMakeFiles/objectExample.dir/D_/Pico_Downloads/pico-sdk/src/rp2_common/pico_double/double_aeabi.S.obj
 .text.ufix2double
                0x00000000       0x28 CMakeFiles/objectExample.dir/D_/Pico_Downloads/pico-sdk/src/rp2_common/pico_double/double_aeabi.S.obj
 .text.fix642double
                0x00000000       0x18 CMakeFiles/objectExample.dir/D_/Pico_Downloads/pico-sdk/src/rp2_common/pico_double/double_aeabi.S.obj
 .text.__wrap___aeabi_l2d
                0x00000000       0x18 CMakeFiles/objectExample.dir/D_/Pico_Downloads/pico-sdk/src/rp2_common/pico_double/double_aeabi.S.obj
 .text.__wrap___aeabi_ul2d
                0x00000000       0x18 CMakeFiles/objectExample.dir/D_/Pico_Downloads/pico-sdk/src/rp2_common/pico_double/double_aeabi.S.obj
 .text.__wrap___aeabi_d2lz
                0x00000000       0x26 CMakeFiles/objectExample.dir/D_/Pico_Downloads/pico-sdk/src/rp2_common/pico_double/double_aeabi.S.obj
 .text.double2int64
                0x00000000       0x18 CMakeFiles/objectExample.dir/D_/Pico_Downloads/pico-sdk/src/rp2_common/pico_double/double_aeabi.S.obj
 .text.__wrap___aeabi_d2ulz
                0x00000000       0x18 CMakeFiles/objectExample.dir/D_/Pico_Downloads/pico-sdk/src/rp2_common/pico_double/double_aeabi.S.obj
 .text.double2fix64
                0x00000000       0x18 CMakeFiles/objectExample.dir/D_/Pico_Downloads/pico-sdk/src/rp2_common/pico_double/double_aeabi.S.obj
 .text.double2ufix64
                0x00000000       0x18 CMakeFiles/objectExample.dir/D_/Pico_Downloads/pico-sdk/src/rp2_common/pico_double/double_aeabi.S.obj
 .text.double2fix
                0x00000000       0x18 CMakeFiles/objectExample.dir/D_/Pico_Downloads/pico-sdk/src/rp2_common/pico_double/double_aeabi.S.obj
 .text.double2ufix
                0x00000000       0x18 CMakeFiles/objectExample.dir/D_/Pico_Downloads/pico-sdk/src/rp2_common/pico_double/double_aeabi.S.obj
 .text.__wrap___aeabi_d2f
                0x00000000       0x18 CMakeFiles/objectExample.dir/D_/Pico_Downloads/pico-sdk/src/rp2_common/pico_double/double_aeabi.S.obj
 .text.__wrap_srqt
                0x00000000       0x18 CMakeFiles/objectExample.dir/D_/Pico_Downloads/pico-sdk/src/rp2_common/pico_double/double_aeabi.S.obj
 .text.__wrap_sincostan_remainder
                0x00000000       0x14 CMakeFiles/objectExample.dir/D_/Pico_Downloads/pico-sdk/src/rp2_common/pico_double/double_aeabi.S.obj
 .text.__wrap_cos
                0x00000000       0x2c CMakeFiles/objectExample.dir/D_/Pico_Downloads/pico-sdk/src/rp2_common/pico_double/double_aeabi.S.obj
 .text.__wrap_sin
                0x00000000       0x2c CMakeFiles/objectExample.dir/D_/Pico_Downloads/pico-sdk/src/rp2_common/pico_double/double_aeabi.S.obj
 .text.__wrap_sincos
                0x00000000       0xa0 CMakeFiles/objectExample.dir/D_/Pico_Downloads/pico-sdk/src/rp2_common/pico_double/double_aeabi.S.obj
 .text.__wrap_tan
                0x00000000       0x2c CMakeFiles/objectExample.dir/D_/Pico_Downloads/pico-sdk/src/rp2_common/pico_double/double_aeabi.S.obj
 .text.__wrap_atan2
                0x00000000       0x18 CMakeFiles/objectExample.dir/D_/Pico_Downloads/pico-sdk/src/rp2_common/pico_double/double_aeabi.S.obj
 .text.__wrap_exp
                0x00000000       0x18 CMakeFiles/objectExample.dir/D_/Pico_Downloads/pico-sdk/src/rp2_common/pico_double/double_aeabi.S.obj
 .text.__wrap_log
                0x00000000       0x18 CMakeFiles/objectExample.dir/D_/Pico_Downloads/pico-sdk/src/rp2_common/pico_double/double_aeabi.S.obj
 .text          0x00000000        0x0 CMakeFiles/objectExample.dir/D_/Pico_Downloads/pico-sdk/src/rp2_common/pico_double/double_init_rom.c.obj
 .data          0x00000000        0x0 CMakeFiles/objectExample.dir/D_/Pico_Downloads/pico-sdk/src/rp2_common/pico_double/double_init_rom.c.obj
 .bss           0x00000000        0x0 CMakeFiles/objectExample.dir/D_/Pico_Downloads/pico-sdk/src/rp2_common/pico_double/double_init_rom.c.obj
 .text          0x00000000        0x0 CMakeFiles/objectExample.dir/D_/Pico_Downloads/pico-sdk/src/rp2_common/pico_double/double_math.c.obj
 .data          0x00000000        0x0 CMakeFiles/objectExample.dir/D_/Pico_Downloads/pico-sdk/src/rp2_common/pico_double/double_math.c.obj
 .bss           0x00000000        0x0 CMakeFiles/objectExample.dir/D_/Pico_Downloads/pico-sdk/src/rp2_common/pico_double/double_math.c.obj
 .text.dpow_int2
                0x00000000       0x2c CMakeFiles/objectExample.dir/D_/Pico_Downloads/pico-sdk/src/rp2_common/pico_double/double_math.c.obj
 .text.drem_0   0x00000000      0x130 CMakeFiles/objectExample.dir/D_/Pico_Downloads/pico-sdk/src/rp2_common/pico_double/double_math.c.obj
 .text.dpow_1   0x00000000      0x2a8 CMakeFiles/objectExample.dir/D_/Pico_Downloads/pico-sdk/src/rp2_common/pico_double/double_math.c.obj
 .text.dpowint_0
                0x00000000      0x180 CMakeFiles/objectExample.dir/D_/Pico_Downloads/pico-sdk/src/rp2_common/pico_double/double_math.c.obj
 .text.dpow_0   0x00000000      0x180 CMakeFiles/objectExample.dir/D_/Pico_Downloads/pico-sdk/src/rp2_common/pico_double/double_math.c.obj
 .text.__wrap_ldexp
                0x00000000       0x50 CMakeFiles/objectExample.dir/D_/Pico_Downloads/pico-sdk/src/rp2_common/pico_double/double_math.c.obj
 .text.__wrap_copysign
                0x00000000       0x10 CMakeFiles/objectExample.dir/D_/Pico_Downloads/pico-sdk/src/rp2_common/pico_double/double_math.c.obj
 .text.__wrap_trunc
                0x00000000       0x60 CMakeFiles/objectExample.dir/D_/Pico_Downloads/pico-sdk/src/rp2_common/pico_double/double_math.c.obj
 .text.__wrap_round
                0x00000000       0x9c CMakeFiles/objectExample.dir/D_/Pico_Downloads/pico-sdk/src/rp2_common/pico_double/double_math.c.obj
 .text.__wrap_floor
                0x00000000       0x9c CMakeFiles/objectExample.dir/D_/Pico_Downloads/pico-sdk/src/rp2_common/pico_double/double_math.c.obj
 .text.__wrap_ceil
                0x00000000       0x9c CMakeFiles/objectExample.dir/D_/Pico_Downloads/pico-sdk/src/rp2_common/pico_double/double_math.c.obj
 .text.__wrap_asin
                0x00000000       0x60 CMakeFiles/objectExample.dir/D_/Pico_Downloads/pico-sdk/src/rp2_common/pico_double/double_math.c.obj
 .text.__wrap_acos
                0x00000000       0x5c CMakeFiles/objectExample.dir/D_/Pico_Downloads/pico-sdk/src/rp2_common/pico_double/double_math.c.obj
 .text.__wrap_atan
                0x00000000       0x40 CMakeFiles/objectExample.dir/D_/Pico_Downloads/pico-sdk/src/rp2_common/pico_double/double_math.c.obj
 .text.__wrap_sinh
                0x00000000       0x7c CMakeFiles/objectExample.dir/D_/Pico_Downloads/pico-sdk/src/rp2_common/pico_double/double_math.c.obj
 .text.__wrap_cosh
                0x00000000       0x7c CMakeFiles/objectExample.dir/D_/Pico_Downloads/pico-sdk/src/rp2_common/pico_double/double_math.c.obj
 .text.__wrap_tanh
                0x00000000       0x98 CMakeFiles/objectExample.dir/D_/Pico_Downloads/pico-sdk/src/rp2_common/pico_double/double_math.c.obj
 .text.__wrap_asinh
                0x00000000       0xb4 CMakeFiles/objectExample.dir/D_/Pico_Downloads/pico-sdk/src/rp2_common/pico_double/double_math.c.obj
 .text.__wrap_acosh
                0x00000000       0x78 CMakeFiles/objectExample.dir/D_/Pico_Downloads/pico-sdk/src/rp2_common/pico_double/double_math.c.obj
 .text.__wrap_atanh
                0x00000000       0x84 CMakeFiles/objectExample.dir/D_/Pico_Downloads/pico-sdk/src/rp2_common/pico_double/double_math.c.obj
 .text.__wrap_exp2
                0x00000000       0xcc CMakeFiles/objectExample.dir/D_/Pico_Downloads/pico-sdk/src/rp2_common/pico_double/double_math.c.obj
 .text.__wrap_log2
                0x00000000       0x18 CMakeFiles/objectExample.dir/D_/Pico_Downloads/pico-sdk/src/rp2_common/pico_double/double_math.c.obj
 .text.__wrap_exp10
                0x00000000       0x14 CMakeFiles/objectExample.dir/D_/Pico_Downloads/pico-sdk/src/rp2_common/pico_double/double_math.c.obj
 .text.__wrap_log10
                0x00000000       0x18 CMakeFiles/objectExample.dir/D_/Pico_Downloads/pico-sdk/src/rp2_common/pico_double/double_math.c.obj
 .text.__wrap_expm1
                0x00000000       0x14 CMakeFiles/objectExample.dir/D_/Pico_Downloads/pico-sdk/src/rp2_common/pico_double/double_math.c.obj
 .text.__wrap_log1p
                0x00000000       0x14 CMakeFiles/objectExample.dir/D_/Pico_Downloads/pico-sdk/src/rp2_common/pico_double/double_math.c.obj
 .text.__wrap_fma
                0x00000000       0x10 CMakeFiles/objectExample.dir/D_/Pico_Downloads/pico-sdk/src/rp2_common/pico_double/double_math.c.obj
 .text.__wrap_powint
                0x00000000       0xbc CMakeFiles/objectExample.dir/D_/Pico_Downloads/pico-sdk/src/rp2_common/pico_double/double_math.c.obj
 .text.__wrap_pow
                0x00000000      0x384 CMakeFiles/objectExample.dir/D_/Pico_Downloads/pico-sdk/src/rp2_common/pico_double/double_math.c.obj
 .text.__wrap_hypot
                0x00000000      0x238 CMakeFiles/objectExample.dir/D_/Pico_Downloads/pico-sdk/src/rp2_common/pico_double/double_math.c.obj
 .text.__wrap_cbrt
                0x00000000       0xec CMakeFiles/objectExample.dir/D_/Pico_Downloads/pico-sdk/src/rp2_common/pico_double/double_math.c.obj
 .text.__wrap_fmod
                0x00000000       0xa8 CMakeFiles/objectExample.dir/D_/Pico_Downloads/pico-sdk/src/rp2_common/pico_double/double_math.c.obj
 .text.__wrap_remquo
                0x00000000      0x17c CMakeFiles/objectExample.dir/D_/Pico_Downloads/pico-sdk/src/rp2_common/pico_double/double_math.c.obj
 .text.__wrap_drem
                0x00000000       0x10 CMakeFiles/objectExample.dir/D_/Pico_Downloads/pico-sdk/src/rp2_common/pico_double/double_math.c.obj
 .text.__wrap_remainder
                0x00000000       0x10 CMakeFiles/objectExample.dir/D_/Pico_Downloads/pico-sdk/src/rp2_common/pico_double/double_math.c.obj
 .debug_info    0x00000000     0x320e CMakeFiles/objectExample.dir/D_/Pico_Downloads/pico-sdk/src/rp2_common/pico_double/double_math.c.obj
 .debug_abbrev  0x00000000      0x2bc CMakeFiles/objectExample.dir/D_/Pico_Downloads/pico-sdk/src/rp2_common/pico_double/double_math.c.obj
 .debug_loc     0x00000000     0x58ac CMakeFiles/objectExample.dir/D_/Pico_Downloads/pico-sdk/src/rp2_common/pico_double/double_math.c.obj
 .debug_aranges
                0x00000000      0x130 CMakeFiles/objectExample.dir/D_/Pico_Downloads/pico-sdk/src/rp2_common/pico_double/double_math.c.obj
 .debug_ranges  0x00000000      0x518 CMakeFiles/objectExample.dir/D_/Pico_Downloads/pico-sdk/src/rp2_common/pico_double/double_math.c.obj
 .debug_line    0x00000000     0x21c8 CMakeFiles/objectExample.dir/D_/Pico_Downloads/pico-sdk/src/rp2_common/pico_double/double_math.c.obj
 .debug_str     0x00000000      0x4ed CMakeFiles/objectExample.dir/D_/Pico_Downloads/pico-sdk/src/rp2_common/pico_double/double_math.c.obj
 .comment       0x00000000       0x4e CMakeFiles/objectExample.dir/D_/Pico_Downloads/pico-sdk/src/rp2_common/pico_double/double_math.c.obj
 .debug_frame   0x00000000      0x440 CMakeFiles/objectExample.dir/D_/Pico_Downloads/pico-sdk/src/rp2_common/pico_double/double_math.c.obj
 .ARM.attributes
                0x00000000       0x2b CMakeFiles/objectExample.dir/D_/Pico_Downloads/pico-sdk/src/rp2_common/pico_double/double_math.c.obj
 .text          0x00000000        0x0 CMakeFiles/objectExample.dir/D_/Pico_Downloads/pico-sdk/src/rp2_common/pico_double/double_v1_rom_shim.S.obj
 .data          0x00000000        0x0 CMakeFiles/objectExample.dir/D_/Pico_Downloads/pico-sdk/src/rp2_common/pico_double/double_v1_rom_shim.S.obj
 .bss           0x00000000        0x0 CMakeFiles/objectExample.dir/D_/Pico_Downloads/pico-sdk/src/rp2_common/pico_double/double_v1_rom_shim.S.obj
 .text.dsqrt_shim
                0x00000000      0x1a8 CMakeFiles/objectExample.dir/D_/Pico_Downloads/pico-sdk/src/rp2_common/pico_double/double_v1_rom_shim.S.obj
 .text.dcordic_vec_step
                0x00000000        0xe CMakeFiles/objectExample.dir/D_/Pico_Downloads/pico-sdk/src/rp2_common/pico_double/double_v1_rom_shim.S.obj
 .text.double2int_shim
                0x00000000        0xe CMakeFiles/objectExample.dir/D_/Pico_Downloads/pico-sdk/src/rp2_common/pico_double/double_v1_rom_shim.S.obj
 .text.double2int64_shim
                0x00000000       0x1a CMakeFiles/objectExample.dir/D_/Pico_Downloads/pico-sdk/src/rp2_common/pico_double/double_v1_rom_shim.S.obj
 .text.double2float_shim
                0x00000000       0x5c CMakeFiles/objectExample.dir/D_/Pico_Downloads/pico-sdk/src/rp2_common/pico_double/double_v1_rom_shim.S.obj
 .text.x2double_shims
                0x00000000       0x90 CMakeFiles/objectExample.dir/D_/Pico_Downloads/pico-sdk/src/rp2_common/pico_double/double_v1_rom_shim.S.obj
 .text.dreduce  0x00000000       0x82 CMakeFiles/objectExample.dir/D_/Pico_Downloads/pico-sdk/src/rp2_common/pico_double/double_v1_rom_shim.S.obj
 .text.dtan_shim
                0x00000000       0x20 CMakeFiles/objectExample.dir/D_/Pico_Downloads/pico-sdk/src/rp2_common/pico_double/double_v1_rom_shim.S.obj
 .text.dcos_shim
                0x00000000       0x10 CMakeFiles/objectExample.dir/D_/Pico_Downloads/pico-sdk/src/rp2_common/pico_double/double_v1_rom_shim.S.obj
 .text.dsin_shim
                0x00000000       0x14 CMakeFiles/objectExample.dir/D_/Pico_Downloads/pico-sdk/src/rp2_common/pico_double/double_v1_rom_shim.S.obj
 .text.dsincos_shim
                0x00000000       0x26 CMakeFiles/objectExample.dir/D_/Pico_Downloads/pico-sdk/src/rp2_common/pico_double/double_v1_rom_shim.S.obj
 .text.dtrig_guts
                0x00000000      0x2ec CMakeFiles/objectExample.dir/D_/Pico_Downloads/pico-sdk/src/rp2_common/pico_double/double_v1_rom_shim.S.obj
 .text.dexp_guts
                0x00000000      0x268 CMakeFiles/objectExample.dir/D_/Pico_Downloads/pico-sdk/src/rp2_common/pico_double/double_v1_rom_shim.S.obj
 .text          0x00000000        0x0 CMakeFiles/objectExample.dir/D_/Pico_Downloads/pico-sdk/src/rp2_common/pico_int64_ops/pico_int64_ops_aeabi.S.obj
 .data          0x00000000        0x0 CMakeFiles/objectExample.dir/D_/Pico_Downloads/pico-sdk/src/rp2_common/pico_int64_ops/pico_int64_ops_aeabi.S.obj
 .bss           0x00000000        0x0 CMakeFiles/objectExample.dir/D_/Pico_Downloads/pico-sdk/src/rp2_common/pico_int64_ops/pico_int64_ops_aeabi.S.obj
 .text          0x00000000        0x0 CMakeFiles/objectExample.dir/D_/Pico_Downloads/pico-sdk/src/rp2_common/pico_float/float_aeabi.S.obj
 .data          0x00000000        0x0 CMakeFiles/objectExample.dir/D_/Pico_Downloads/pico-sdk/src/rp2_common/pico_float/float_aeabi.S.obj
 .bss           0x00000000        0x0 CMakeFiles/objectExample.dir/D_/Pico_Downloads/pico-sdk/src/rp2_common/pico_float/float_aeabi.S.obj
 .text.__wrap___aeabi_farithmetic
                0x00000000       0x34 CMakeFiles/objectExample.dir/D_/Pico_Downloads/pico-sdk/src/rp2_common/pico_float/float_aeabi.S.obj
 .text.__wrap___aeabi_cfcmple
                0x00000000       0x50 CMakeFiles/objectExample.dir/D_/Pico_Downloads/pico-sdk/src/rp2_common/pico_float/float_aeabi.S.obj
 .text.__wrap___aeabi_fcmpeq
                0x00000000       0x10 CMakeFiles/objectExample.dir/D_/Pico_Downloads/pico-sdk/src/rp2_common/pico_float/float_aeabi.S.obj
 .text.__wrap___aeabi_fcmplt
                0x00000000        0xc CMakeFiles/objectExample.dir/D_/Pico_Downloads/pico-sdk/src/rp2_common/pico_float/float_aeabi.S.obj
 .text.__wrap___aeabi_fcmple
                0x00000000       0x10 CMakeFiles/objectExample.dir/D_/Pico_Downloads/pico-sdk/src/rp2_common/pico_float/float_aeabi.S.obj
 .text.__wrap___aeabi_fcmpge
                0x00000000       0x10 CMakeFiles/objectExample.dir/D_/Pico_Downloads/pico-sdk/src/rp2_common/pico_float/float_aeabi.S.obj
 .text.__wrap___aeabi_fcmpgt
                0x00000000        0xa CMakeFiles/objectExample.dir/D_/Pico_Downloads/pico-sdk/src/rp2_common/pico_float/float_aeabi.S.obj
 .text.__wrap___aeabi_fcmpun
                0x00000000       0x18 CMakeFiles/objectExample.dir/D_/Pico_Downloads/pico-sdk/src/rp2_common/pico_float/float_aeabi.S.obj
 .text.__wrap___aeabi_ui2f
                0x00000000        0xa CMakeFiles/objectExample.dir/D_/Pico_Downloads/pico-sdk/src/rp2_common/pico_float/float_aeabi.S.obj
 .text.__wrap___aeabi_i2f
                0x00000000       0x44 CMakeFiles/objectExample.dir/D_/Pico_Downloads/pico-sdk/src/rp2_common/pico_float/float_aeabi.S.obj
 .text.__wrap___aeabi_f2iz
                0x00000000       0x4e CMakeFiles/objectExample.dir/D_/Pico_Downloads/pico-sdk/src/rp2_common/pico_float/float_aeabi.S.obj
 .text.float2int
                0x00000000       0x14 CMakeFiles/objectExample.dir/D_/Pico_Downloads/pico-sdk/src/rp2_common/pico_float/float_aeabi.S.obj
 .text.float2fix
                0x00000000       0x14 CMakeFiles/objectExample.dir/D_/Pico_Downloads/pico-sdk/src/rp2_common/pico_float/float_aeabi.S.obj
 .text.float2ufix
                0x00000000       0x10 CMakeFiles/objectExample.dir/D_/Pico_Downloads/pico-sdk/src/rp2_common/pico_float/float_aeabi.S.obj
 .text.__wrap___aeabi_f2uiz
                0x00000000       0x10 CMakeFiles/objectExample.dir/D_/Pico_Downloads/pico-sdk/src/rp2_common/pico_float/float_aeabi.S.obj
 .text.fix2float
                0x00000000       0x10 CMakeFiles/objectExample.dir/D_/Pico_Downloads/pico-sdk/src/rp2_common/pico_float/float_aeabi.S.obj
 .text.ufix2float
                0x00000000       0x10 CMakeFiles/objectExample.dir/D_/Pico_Downloads/pico-sdk/src/rp2_common/pico_float/float_aeabi.S.obj
 .text.fix642float
                0x00000000       0x14 CMakeFiles/objectExample.dir/D_/Pico_Downloads/pico-sdk/src/rp2_common/pico_float/float_aeabi.S.obj
 .text.ufix642float
                0x00000000       0x14 CMakeFiles/objectExample.dir/D_/Pico_Downloads/pico-sdk/src/rp2_common/pico_float/float_aeabi.S.obj
 .text.__wrap___aeabi_l2f
                0x00000000       0x20 CMakeFiles/objectExample.dir/D_/Pico_Downloads/pico-sdk/src/rp2_common/pico_float/float_aeabi.S.obj
 .text.__wrap___aeabi_ul2f
                0x00000000       0x20 CMakeFiles/objectExample.dir/D_/Pico_Downloads/pico-sdk/src/rp2_common/pico_float/float_aeabi.S.obj
 .text.__wrap___aeabi_f2lz
                0x00000000       0x26 CMakeFiles/objectExample.dir/D_/Pico_Downloads/pico-sdk/src/rp2_common/pico_float/float_aeabi.S.obj
 .text.float2int64
                0x00000000       0x14 CMakeFiles/objectExample.dir/D_/Pico_Downloads/pico-sdk/src/rp2_common/pico_float/float_aeabi.S.obj
 .text.float2fix64
                0x00000000       0x14 CMakeFiles/objectExample.dir/D_/Pico_Downloads/pico-sdk/src/rp2_common/pico_float/float_aeabi.S.obj
 .text.__wrap___aeabi_f2ulz
                0x00000000       0x14 CMakeFiles/objectExample.dir/D_/Pico_Downloads/pico-sdk/src/rp2_common/pico_float/float_aeabi.S.obj
 .text.float2ufix64
                0x00000000       0x14 CMakeFiles/objectExample.dir/D_/Pico_Downloads/pico-sdk/src/rp2_common/pico_float/float_aeabi.S.obj
 .text.__wrap___aeabi_f2d
                0x00000000       0x14 CMakeFiles/objectExample.dir/D_/Pico_Downloads/pico-sdk/src/rp2_common/pico_float/float_aeabi.S.obj
 .text.__wrap_srqtf
                0x00000000       0x24 CMakeFiles/objectExample.dir/D_/Pico_Downloads/pico-sdk/src/rp2_common/pico_float/float_aeabi.S.obj
 .text.__wrap_cosf
                0x00000000       0x28 CMakeFiles/objectExample.dir/D_/Pico_Downloads/pico-sdk/src/rp2_common/pico_float/float_aeabi.S.obj
 .text.__wrap_sinf
                0x00000000       0x28 CMakeFiles/objectExample.dir/D_/Pico_Downloads/pico-sdk/src/rp2_common/pico_float/float_aeabi.S.obj
 .text.__wrap_sincosf
                0x00000000       0x30 CMakeFiles/objectExample.dir/D_/Pico_Downloads/pico-sdk/src/rp2_common/pico_float/float_aeabi.S.obj
 .text.__wrap_tanf
                0x00000000       0x28 CMakeFiles/objectExample.dir/D_/Pico_Downloads/pico-sdk/src/rp2_common/pico_float/float_aeabi.S.obj
 .text.__wrap_atan2f
                0x00000000       0x14 CMakeFiles/objectExample.dir/D_/Pico_Downloads/pico-sdk/src/rp2_common/pico_float/float_aeabi.S.obj
 .text.__wrap_expf
                0x00000000       0x10 CMakeFiles/objectExample.dir/D_/Pico_Downloads/pico-sdk/src/rp2_common/pico_float/float_aeabi.S.obj
 .text.__wrap_logf
                0x00000000       0x10 CMakeFiles/objectExample.dir/D_/Pico_Downloads/pico-sdk/src/rp2_common/pico_float/float_aeabi.S.obj
 .text          0x00000000        0x0 CMakeFiles/objectExample.dir/D_/Pico_Downloads/pico-sdk/src/rp2_common/pico_float/float_init_rom.c.obj
 .data          0x00000000        0x0 CMakeFiles/objectExample.dir/D_/Pico_Downloads/pico-sdk/src/rp2_common/pico_float/float_init_rom.c.obj
 .bss           0x00000000        0x0 CMakeFiles/objectExample.dir/D_/Pico_Downloads/pico-sdk/src/rp2_common/pico_float/float_init_rom.c.obj
 .text          0x00000000        0x0 CMakeFiles/objectExample.dir/D_/Pico_Downloads/pico-sdk/src/rp2_common/pico_float/float_math.c.obj
 .data          0x00000000        0x0 CMakeFiles/objectExample.dir/D_/Pico_Downloads/pico-sdk/src/rp2_common/pico_float/float_math.c.obj
 .bss           0x00000000        0x0 CMakeFiles/objectExample.dir/D_/Pico_Downloads/pico-sdk/src/rp2_common/pico_float/float_math.c.obj
 .text.fpow_int2
                0x00000000       0x26 CMakeFiles/objectExample.dir/D_/Pico_Downloads/pico-sdk/src/rp2_common/pico_float/float_math.c.obj
 .text.frem_0   0x00000000       0x80 CMakeFiles/objectExample.dir/D_/Pico_Downloads/pico-sdk/src/rp2_common/pico_float/float_math.c.obj
 .text.fpow_0   0x00000000      0x130 CMakeFiles/objectExample.dir/D_/Pico_Downloads/pico-sdk/src/rp2_common/pico_float/float_math.c.obj
 .text.fpowint_0
                0x00000000      0x11c CMakeFiles/objectExample.dir/D_/Pico_Downloads/pico-sdk/src/rp2_common/pico_float/float_math.c.obj
 .text.__wrap_ldexpf
                0x00000000       0x34 CMakeFiles/objectExample.dir/D_/Pico_Downloads/pico-sdk/src/rp2_common/pico_float/float_math.c.obj
 .text.__wrap_copysignf
                0x00000000        0xc CMakeFiles/objectExample.dir/D_/Pico_Downloads/pico-sdk/src/rp2_common/pico_float/float_math.c.obj
 .text.__wrap_truncf
                0x00000000       0x22 CMakeFiles/objectExample.dir/D_/Pico_Downloads/pico-sdk/src/rp2_common/pico_float/float_math.c.obj
 .text.__wrap_roundf
                0x00000000       0x3e CMakeFiles/objectExample.dir/D_/Pico_Downloads/pico-sdk/src/rp2_common/pico_float/float_math.c.obj
 .text.__wrap_floorf
                0x00000000       0x44 CMakeFiles/objectExample.dir/D_/Pico_Downloads/pico-sdk/src/rp2_common/pico_float/float_math.c.obj
 .text.__wrap_ceilf
                0x00000000       0x44 CMakeFiles/objectExample.dir/D_/Pico_Downloads/pico-sdk/src/rp2_common/pico_float/float_math.c.obj
 .text.__wrap_asinf
                0x00000000       0x42 CMakeFiles/objectExample.dir/D_/Pico_Downloads/pico-sdk/src/rp2_common/pico_float/float_math.c.obj
 .text.__wrap_acosf
                0x00000000       0x40 CMakeFiles/objectExample.dir/D_/Pico_Downloads/pico-sdk/src/rp2_common/pico_float/float_math.c.obj
 .text.__wrap_atanf
                0x00000000       0x2c CMakeFiles/objectExample.dir/D_/Pico_Downloads/pico-sdk/src/rp2_common/pico_float/float_math.c.obj
 .text.__wrap_sinhf
                0x00000000       0x54 CMakeFiles/objectExample.dir/D_/Pico_Downloads/pico-sdk/src/rp2_common/pico_float/float_math.c.obj
 .text.__wrap_coshf
                0x00000000       0x54 CMakeFiles/objectExample.dir/D_/Pico_Downloads/pico-sdk/src/rp2_common/pico_float/float_math.c.obj
 .text.__wrap_tanhf
                0x00000000       0x6c CMakeFiles/objectExample.dir/D_/Pico_Downloads/pico-sdk/src/rp2_common/pico_float/float_math.c.obj
 .text.__wrap_asinhf
                0x00000000       0xb8 CMakeFiles/objectExample.dir/D_/Pico_Downloads/pico-sdk/src/rp2_common/pico_float/float_math.c.obj
 .text.__wrap_acoshf
                0x00000000       0x74 CMakeFiles/objectExample.dir/D_/Pico_Downloads/pico-sdk/src/rp2_common/pico_float/float_math.c.obj
 .text.__wrap_atanhf
                0x00000000       0x5c CMakeFiles/objectExample.dir/D_/Pico_Downloads/pico-sdk/src/rp2_common/pico_float/float_math.c.obj
 .text.__wrap_exp2f
                0x00000000       0x20 CMakeFiles/objectExample.dir/D_/Pico_Downloads/pico-sdk/src/rp2_common/pico_float/float_math.c.obj
 .text.__wrap_log2f
                0x00000000       0x14 CMakeFiles/objectExample.dir/D_/Pico_Downloads/pico-sdk/src/rp2_common/pico_float/float_math.c.obj
 .text.__wrap_exp10f
                0x00000000       0x20 CMakeFiles/objectExample.dir/D_/Pico_Downloads/pico-sdk/src/rp2_common/pico_float/float_math.c.obj
 .text.__wrap_log10f
                0x00000000       0x14 CMakeFiles/objectExample.dir/D_/Pico_Downloads/pico-sdk/src/rp2_common/pico_float/float_math.c.obj
 .text.__wrap_expm1f
                0x00000000       0x1c CMakeFiles/objectExample.dir/D_/Pico_Downloads/pico-sdk/src/rp2_common/pico_float/float_math.c.obj
 .text.__wrap_log1pf
                0x00000000       0x1c CMakeFiles/objectExample.dir/D_/Pico_Downloads/pico-sdk/src/rp2_common/pico_float/float_math.c.obj
 .text.__wrap_fmaf
                0x00000000       0x3c CMakeFiles/objectExample.dir/D_/Pico_Downloads/pico-sdk/src/rp2_common/pico_float/float_math.c.obj
 .text.__wrap_powintf
                0x00000000       0xa0 CMakeFiles/objectExample.dir/D_/Pico_Downloads/pico-sdk/src/rp2_common/pico_float/float_math.c.obj
 .text.__wrap_powf
                0x00000000      0x214 CMakeFiles/objectExample.dir/D_/Pico_Downloads/pico-sdk/src/rp2_common/pico_float/float_math.c.obj
 .text.__wrap_hypotf
                0x00000000      0x18a CMakeFiles/objectExample.dir/D_/Pico_Downloads/pico-sdk/src/rp2_common/pico_float/float_math.c.obj
 .text.__wrap_cbrtf
                0x00000000       0xc4 CMakeFiles/objectExample.dir/D_/Pico_Downloads/pico-sdk/src/rp2_common/pico_float/float_math.c.obj
 .text.__wrap_fmodf
                0x00000000       0x62 CMakeFiles/objectExample.dir/D_/Pico_Downloads/pico-sdk/src/rp2_common/pico_float/float_math.c.obj
 .text.__wrap_remquof
                0x00000000       0xda CMakeFiles/objectExample.dir/D_/Pico_Downloads/pico-sdk/src/rp2_common/pico_float/float_math.c.obj
 .text.__wrap_dremf
                0x00000000        0xa CMakeFiles/objectExample.dir/D_/Pico_Downloads/pico-sdk/src/rp2_common/pico_float/float_math.c.obj
 .text.__wrap_remainderf
                0x00000000        0xa CMakeFiles/objectExample.dir/D_/Pico_Downloads/pico-sdk/src/rp2_common/pico_float/float_math.c.obj
 .debug_info    0x00000000     0x2f14 CMakeFiles/objectExample.dir/D_/Pico_Downloads/pico-sdk/src/rp2_common/pico_float/float_math.c.obj
 .debug_abbrev  0x00000000      0x296 CMakeFiles/objectExample.dir/D_/Pico_Downloads/pico-sdk/src/rp2_common/pico_float/float_math.c.obj
 .debug_loc     0x00000000     0x465d CMakeFiles/objectExample.dir/D_/Pico_Downloads/pico-sdk/src/rp2_common/pico_float/float_math.c.obj
 .debug_aranges
                0x00000000      0x128 CMakeFiles/objectExample.dir/D_/Pico_Downloads/pico-sdk/src/rp2_common/pico_float/float_math.c.obj
 .debug_ranges  0x00000000      0x4b8 CMakeFiles/objectExample.dir/D_/Pico_Downloads/pico-sdk/src/rp2_common/pico_float/float_math.c.obj
 .debug_line    0x00000000     0x1dca CMakeFiles/objectExample.dir/D_/Pico_Downloads/pico-sdk/src/rp2_common/pico_float/float_math.c.obj
 .debug_str     0x00000000      0x503 CMakeFiles/objectExample.dir/D_/Pico_Downloads/pico-sdk/src/rp2_common/pico_float/float_math.c.obj
 .comment       0x00000000       0x4e CMakeFiles/objectExample.dir/D_/Pico_Downloads/pico-sdk/src/rp2_common/pico_float/float_math.c.obj
 .debug_frame   0x00000000      0x3a0 CMakeFiles/objectExample.dir/D_/Pico_Downloads/pico-sdk/src/rp2_common/pico_float/float_math.c.obj
 .ARM.attributes
                0x00000000       0x2b CMakeFiles/objectExample.dir/D_/Pico_Downloads/pico-sdk/src/rp2_common/pico_float/float_math.c.obj
 .text          0x00000000        0x0 CMakeFiles/objectExample.dir/D_/Pico_Downloads/pico-sdk/src/rp2_common/pico_float/float_v1_rom_shim.S.obj
 .data          0x00000000        0x0 CMakeFiles/objectExample.dir/D_/Pico_Downloads/pico-sdk/src/rp2_common/pico_float/float_v1_rom_shim.S.obj
 .bss           0x00000000        0x0 CMakeFiles/objectExample.dir/D_/Pico_Downloads/pico-sdk/src/rp2_common/pico_float/float_v1_rom_shim.S.obj
 .text.642float_shims
                0x00000000       0x44 CMakeFiles/objectExample.dir/D_/Pico_Downloads/pico-sdk/src/rp2_common/pico_float/float_v1_rom_shim.S.obj
 .text.fatan2_shim
                0x00000000       0x88 CMakeFiles/objectExample.dir/D_/Pico_Downloads/pico-sdk/src/rp2_common/pico_float/float_v1_rom_shim.S.obj
 .text.float232_shims
                0x00000000       0x18 CMakeFiles/objectExample.dir/D_/Pico_Downloads/pico-sdk/src/rp2_common/pico_float/float_v1_rom_shim.S.obj
 .text.float264_shims
                0x00000000       0x4c CMakeFiles/objectExample.dir/D_/Pico_Downloads/pico-sdk/src/rp2_common/pico_float/float_v1_rom_shim.S.obj
 .text.d2fix_a_float
                0x00000000       0x5c CMakeFiles/objectExample.dir/D_/Pico_Downloads/pico-sdk/src/rp2_common/pico_float/float_v1_rom_shim.S.obj
 .text.float2double_shim
                0x00000000       0x30 CMakeFiles/objectExample.dir/D_/Pico_Downloads/pico-sdk/src/rp2_common/pico_float/float_v1_rom_shim.S.obj
 .text          0x00000000        0x0 CMakeFiles/objectExample.dir/D_/Pico_Downloads/pico-sdk/src/rp2_common/pico_malloc/pico_malloc.c.obj
 .data          0x00000000        0x0 CMakeFiles/objectExample.dir/D_/Pico_Downloads/pico-sdk/src/rp2_common/pico_malloc/pico_malloc.c.obj
 .bss           0x00000000        0x0 CMakeFiles/objectExample.dir/D_/Pico_Downloads/pico-sdk/src/rp2_common/pico_malloc/pico_malloc.c.obj
 .text.__wrap_free
                0x00000000        0x8 CMakeFiles/objectExample.dir/D_/Pico_Downloads/pico-sdk/src/rp2_common/pico_malloc/pico_malloc.c.obj
 .data          0x00000000        0x0 CMakeFiles/objectExample.dir/D_/Pico_Downloads/pico-sdk/src/rp2_common/pico_mem_ops/mem_ops_aeabi.S.obj
 .bss           0x00000000        0x0 CMakeFiles/objectExample.dir/D_/Pico_Downloads/pico-sdk/src/rp2_common/pico_mem_ops/mem_ops_aeabi.S.obj
 .text.aeabi_memset_memcpy
                0x00000000       0x24 CMakeFiles/objectExample.dir/D_/Pico_Downloads/pico-sdk/src/rp2_common/pico_mem_ops/mem_ops_aeabi.S.obj
 .text          0x00000000        0x0 CMakeFiles/objectExample.dir/D_/Pico_Downloads/pico-sdk/src/rp2_common/pico_standard_link/crt0.S.obj
 .data          0x00000000        0x0 CMakeFiles/objectExample.dir/D_/Pico_Downloads/pico-sdk/src/rp2_common/pico_standard_link/crt0.S.obj
 .bss           0x00000000        0x0 CMakeFiles/objectExample.dir/D_/Pico_Downloads/pico-sdk/src/rp2_common/pico_standard_link/crt0.S.obj
 .text          0x00000000        0x0 CMakeFiles/objectExample.dir/D_/Pico_Downloads/pico-sdk/src/rp2_common/pico_standard_link/new_delete.cpp.obj
 .data          0x00000000        0x0 CMakeFiles/objectExample.dir/D_/Pico_Downloads/pico-sdk/src/rp2_common/pico_standard_link/new_delete.cpp.obj
 .bss           0x00000000        0x0 CMakeFiles/objectExample.dir/D_/Pico_Downloads/pico-sdk/src/rp2_common/pico_standard_link/new_delete.cpp.obj
 .text._Znwj    0x00000000        0x8 CMakeFiles/objectExample.dir/D_/Pico_Downloads/pico-sdk/src/rp2_common/pico_standard_link/new_delete.cpp.obj
 .text._Znaj    0x00000000        0x8 CMakeFiles/objectExample.dir/D_/Pico_Downloads/pico-sdk/src/rp2_common/pico_standard_link/new_delete.cpp.obj
 .text._ZdlPvj  0x00000000        0x8 CMakeFiles/objectExample.dir/D_/Pico_Downloads/pico-sdk/src/rp2_common/pico_standard_link/new_delete.cpp.obj
 .text._ZdlPv   0x00000000        0x8 CMakeFiles/objectExample.dir/D_/Pico_Downloads/pico-sdk/src/rp2_common/pico_standard_link/new_delete.cpp.obj
 .text._ZdaPv   0x00000000        0x8 CMakeFiles/objectExample.dir/D_/Pico_Downloads/pico-sdk/src/rp2_common/pico_standard_link/new_delete.cpp.obj
 .debug_info    0x00000000      0x750 CMakeFiles/objectExample.dir/D_/Pico_Downloads/pico-sdk/src/rp2_common/pico_standard_link/new_delete.cpp.obj
 .debug_abbrev  0x00000000      0x1eb CMakeFiles/objectExample.dir/D_/Pico_Downloads/pico-sdk/src/rp2_common/pico_standard_link/new_delete.cpp.obj
 .debug_loc     0x00000000       0xde CMakeFiles/objectExample.dir/D_/Pico_Downloads/pico-sdk/src/rp2_common/pico_standard_link/new_delete.cpp.obj
 .debug_aranges
                0x00000000       0x40 CMakeFiles/objectExample.dir/D_/Pico_Downloads/pico-sdk/src/rp2_common/pico_standard_link/new_delete.cpp.obj
 .debug_ranges  0x00000000       0x30 CMakeFiles/objectExample.dir/D_/Pico_Downloads/pico-sdk/src/rp2_common/pico_standard_link/new_delete.cpp.obj
 .debug_line    0x00000000      0x25a CMakeFiles/objectExample.dir/D_/Pico_Downloads/pico-sdk/src/rp2_common/pico_standard_link/new_delete.cpp.obj
 .debug_str     0x00000000      0x389 CMakeFiles/objectExample.dir/D_/Pico_Downloads/pico-sdk/src/rp2_common/pico_standard_link/new_delete.cpp.obj
 .comment       0x00000000       0x4e CMakeFiles/objectExample.dir/D_/Pico_Downloads/pico-sdk/src/rp2_common/pico_standard_link/new_delete.cpp.obj
 .debug_frame   0x00000000       0x88 CMakeFiles/objectExample.dir/D_/Pico_Downloads/pico-sdk/src/rp2_common/pico_standard_link/new_delete.cpp.obj
 .ARM.attributes
                0x00000000       0x2b CMakeFiles/objectExample.dir/D_/Pico_Downloads/pico-sdk/src/rp2_common/pico_standard_link/new_delete.cpp.obj
 .text          0x00000000        0x0 CMakeFiles/objectExample.dir/D_/Pico_Downloads/pico-sdk/src/rp2_common/pico_standard_link/binary_info.c.obj
 .data          0x00000000        0x0 CMakeFiles/objectExample.dir/D_/Pico_Downloads/pico-sdk/src/rp2_common/pico_standard_link/binary_info.c.obj
 .bss           0x00000000        0x0 CMakeFiles/objectExample.dir/D_/Pico_Downloads/pico-sdk/src/rp2_common/pico_standard_link/binary_info.c.obj
 .text          0x00000000        0x0 CMakeFiles/objectExample.dir/D_/Pico_Downloads/pico-sdk/src/rp2_common/pico_stdio/stdio.c.obj
 .data          0x00000000        0x0 CMakeFiles/objectExample.dir/D_/Pico_Downloads/pico-sdk/src/rp2_common/pico_stdio/stdio.c.obj
 .bss           0x00000000        0x0 CMakeFiles/objectExample.dir/D_/Pico_Downloads/pico-sdk/src/rp2_common/pico_stdio/stdio.c.obj
 .text.stdio_get_until
                0x00000000       0x78 CMakeFiles/objectExample.dir/D_/Pico_Downloads/pico-sdk/src/rp2_common/pico_stdio/stdio.c.obj
 .text.__wrap_putchar
                0x00000000       0x1a CMakeFiles/objectExample.dir/D_/Pico_Downloads/pico-sdk/src/rp2_common/pico_stdio/stdio.c.obj
 .text._read    0x00000000       0x24 CMakeFiles/objectExample.dir/D_/Pico_Downloads/pico-sdk/src/rp2_common/pico_stdio/stdio.c.obj
 .text._write   0x00000000       0x1e CMakeFiles/objectExample.dir/D_/Pico_Downloads/pico-sdk/src/rp2_common/pico_stdio/stdio.c.obj
 .text.__wrap_getchar
                0x00000000       0x28 CMakeFiles/objectExample.dir/D_/Pico_Downloads/pico-sdk/src/rp2_common/pico_stdio/stdio.c.obj
 .rodata.getchar_timeout_us.str1.4
                0x00000000       0x41 CMakeFiles/objectExample.dir/D_/Pico_Downloads/pico-sdk/src/rp2_common/pico_stdio/stdio.c.obj
 .text.getchar_timeout_us
                0x00000000       0x54 CMakeFiles/objectExample.dir/D_/Pico_Downloads/pico-sdk/src/rp2_common/pico_stdio/stdio.c.obj
 .text.stdio_filter_driver
                0x00000000        0xc CMakeFiles/objectExample.dir/D_/Pico_Downloads/pico-sdk/src/rp2_common/pico_stdio/stdio.c.obj
 .text.stdio_set_translate_crlf
                0x00000000       0x10 CMakeFiles/objectExample.dir/D_/Pico_Downloads/pico-sdk/src/rp2_common/pico_stdio/stdio.c.obj
 .rodata.__func__.0
                0x00000000       0x13 CMakeFiles/objectExample.dir/D_/Pico_Downloads/pico-sdk/src/rp2_common/pico_stdio/stdio.c.obj
 .text          0x00000000        0x0 CMakeFiles/objectExample.dir/D_/Pico_Downloads/pico-sdk/src/rp2_common/pico_stdio_usb/stdio_usb.c.obj
 .data          0x00000000        0x0 CMakeFiles/objectExample.dir/D_/Pico_Downloads/pico-sdk/src/rp2_common/pico_stdio_usb/stdio_usb.c.obj
 .bss           0x00000000        0x0 CMakeFiles/objectExample.dir/D_/Pico_Downloads/pico-sdk/src/rp2_common/pico_stdio_usb/stdio_usb.c.obj
 .text          0x00000000        0x0 CMakeFiles/objectExample.dir/D_/Pico_Downloads/pico-sdk/src/rp2_common/pico_stdio_usb/stdio_usb_descriptors.c.obj
 .data          0x00000000        0x0 CMakeFiles/objectExample.dir/D_/Pico_Downloads/pico-sdk/src/rp2_common/pico_stdio_usb/stdio_usb_descriptors.c.obj
 .bss           0x00000000        0x0 CMakeFiles/objectExample.dir/D_/Pico_Downloads/pico-sdk/src/rp2_common/pico_stdio_usb/stdio_usb_descriptors.c.obj
 .text          0x00000000        0x0 CMakeFiles/objectExample.dir/D_/Pico_Downloads/pico-sdk/lib/tinyusb/src/portable/raspberrypi/rp2040/dcd_rp2040.c.obj
 .data          0x00000000        0x0 CMakeFiles/objectExample.dir/D_/Pico_Downloads/pico-sdk/lib/tinyusb/src/portable/raspberrypi/rp2040/dcd_rp2040.c.obj
 .bss           0x00000000        0x0 CMakeFiles/objectExample.dir/D_/Pico_Downloads/pico-sdk/lib/tinyusb/src/portable/raspberrypi/rp2040/dcd_rp2040.c.obj
 .text.dcd_int_disable
                0x00000000       0x2c CMakeFiles/objectExample.dir/D_/Pico_Downloads/pico-sdk/lib/tinyusb/src/portable/raspberrypi/rp2040/dcd_rp2040.c.obj
 .rodata.dcd_remote_wakeup.str1.4
                0x00000000       0x16 CMakeFiles/objectExample.dir/D_/Pico_Downloads/pico-sdk/lib/tinyusb/src/portable/raspberrypi/rp2040/dcd_rp2040.c.obj
 .text.dcd_remote_wakeup
                0x00000000       0x10 CMakeFiles/objectExample.dir/D_/Pico_Downloads/pico-sdk/lib/tinyusb/src/portable/raspberrypi/rp2040/dcd_rp2040.c.obj
 .text.dcd_disconnect
                0x00000000       0x30 CMakeFiles/objectExample.dir/D_/Pico_Downloads/pico-sdk/lib/tinyusb/src/portable/raspberrypi/rp2040/dcd_rp2040.c.obj
 .text.dcd_edpt_close
                0x00000000        0x2 CMakeFiles/objectExample.dir/D_/Pico_Downloads/pico-sdk/lib/tinyusb/src/portable/raspberrypi/rp2040/dcd_rp2040.c.obj
 .rodata.__func__.7
                0x00000000        0xf CMakeFiles/objectExample.dir/D_/Pico_Downloads/pico-sdk/lib/tinyusb/src/portable/raspberrypi/rp2040/dcd_rp2040.c.obj
 .rodata.__func__.9
                0x00000000       0x10 CMakeFiles/objectExample.dir/D_/Pico_Downloads/pico-sdk/lib/tinyusb/src/portable/raspberrypi/rp2040/dcd_rp2040.c.obj
 .text          0x00000000        0x0 CMakeFiles/objectExample.dir/D_/Pico_Downloads/pico-sdk/lib/tinyusb/src/portable/raspberrypi/rp2040/rp2040_usb.c.obj
 .data          0x00000000        0x0 CMakeFiles/objectExample.dir/D_/Pico_Downloads/pico-sdk/lib/tinyusb/src/portable/raspberrypi/rp2040/rp2040_usb.c.obj
 .bss           0x00000000        0x0 CMakeFiles/objectExample.dir/D_/Pico_Downloads/pico-sdk/lib/tinyusb/src/portable/raspberrypi/rp2040/rp2040_usb.c.obj
 .text          0x00000000        0x0 CMakeFiles/objectExample.dir/D_/Pico_Downloads/pico-sdk/lib/tinyusb/src/device/usbd.c.obj
 .data          0x00000000        0x0 CMakeFiles/objectExample.dir/D_/Pico_Downloads/pico-sdk/lib/tinyusb/src/device/usbd.c.obj
 .bss           0x00000000        0x0 CMakeFiles/objectExample.dir/D_/Pico_Downloads/pico-sdk/lib/tinyusb/src/device/usbd.c.obj
 .text.tud_speed_get
                0x00000000        0xc CMakeFiles/objectExample.dir/D_/Pico_Downloads/pico-sdk/lib/tinyusb/src/device/usbd.c.obj
 .text.tud_remote_wakeup
                0x00000000       0x2c CMakeFiles/objectExample.dir/D_/Pico_Downloads/pico-sdk/lib/tinyusb/src/device/usbd.c.obj
 .text.tud_disconnect
                0x00000000       0x1c CMakeFiles/objectExample.dir/D_/Pico_Downloads/pico-sdk/lib/tinyusb/src/device/usbd.c.obj
 .text.tud_connect
                0x00000000       0x1c CMakeFiles/objectExample.dir/D_/Pico_Downloads/pico-sdk/lib/tinyusb/src/device/usbd.c.obj
 .text.tud_task_event_ready
                0x00000000       0x20 CMakeFiles/objectExample.dir/D_/Pico_Downloads/pico-sdk/lib/tinyusb/src/device/usbd.c.obj
 .text.dcd_event_bus_reset
                0x00000000       0x2a CMakeFiles/objectExample.dir/D_/Pico_Downloads/pico-sdk/lib/tinyusb/src/device/usbd.c.obj
 .text.usbd_defer_func
                0x00000000       0x2a CMakeFiles/objectExample.dir/D_/Pico_Downloads/pico-sdk/lib/tinyusb/src/device/usbd.c.obj
 .text.usbd_edpt_busy
                0x00000000       0x1c CMakeFiles/objectExample.dir/D_/Pico_Downloads/pico-sdk/lib/tinyusb/src/device/usbd.c.obj
 .text.usbd_edpt_close
                0x00000000       0x2c CMakeFiles/objectExample.dir/D_/Pico_Downloads/pico-sdk/lib/tinyusb/src/device/usbd.c.obj
 .rodata.__func__.0
                0x00000000       0x10 CMakeFiles/objectExample.dir/D_/Pico_Downloads/pico-sdk/lib/tinyusb/src/device/usbd.c.obj
 .text          0x00000000        0x0 CMakeFiles/objectExample.dir/D_/Pico_Downloads/pico-sdk/lib/tinyusb/src/device/usbd_control.c.obj
 .data          0x00000000        0x0 CMakeFiles/objectExample.dir/D_/Pico_Downloads/pico-sdk/lib/tinyusb/src/device/usbd_control.c.obj
 .bss           0x00000000        0x0 CMakeFiles/objectExample.dir/D_/Pico_Downloads/pico-sdk/lib/tinyusb/src/device/usbd_control.c.obj
 .text          0x00000000        0x0 CMakeFiles/objectExample.dir/D_/Pico_Downloads/pico-sdk/lib/tinyusb/src/class/audio/audio_device.c.obj
 .data          0x00000000        0x0 CMakeFiles/objectExample.dir/D_/Pico_Downloads/pico-sdk/lib/tinyusb/src/class/audio/audio_device.c.obj
 .bss           0x00000000        0x0 CMakeFiles/objectExample.dir/D_/Pico_Downloads/pico-sdk/lib/tinyusb/src/class/audio/audio_device.c.obj
 .debug_line    0x00000000        0x0 CMakeFiles/objectExample.dir/D_/Pico_Downloads/pico-sdk/lib/tinyusb/src/class/audio/audio_device.c.obj
 .debug_str     0x00000000       0xfc CMakeFiles/objectExample.dir/D_/Pico_Downloads/pico-sdk/lib/tinyusb/src/class/audio/audio_device.c.obj
 .comment       0x00000000       0x4e CMakeFiles/objectExample.dir/D_/Pico_Downloads/pico-sdk/lib/tinyusb/src/class/audio/audio_device.c.obj
 .ARM.attributes
                0x00000000       0x32 CMakeFiles/objectExample.dir/D_/Pico_Downloads/pico-sdk/lib/tinyusb/src/class/audio/audio_device.c.obj
 .text          0x00000000        0x0 CMakeFiles/objectExample.dir/D_/Pico_Downloads/pico-sdk/lib/tinyusb/src/class/cdc/cdc_device.c.obj
 .data          0x00000000        0x0 CMakeFiles/objectExample.dir/D_/Pico_Downloads/pico-sdk/lib/tinyusb/src/class/cdc/cdc_device.c.obj
 .bss           0x00000000        0x0 CMakeFiles/objectExample.dir/D_/Pico_Downloads/pico-sdk/lib/tinyusb/src/class/cdc/cdc_device.c.obj
 .text.tud_cdc_n_get_line_state
                0x00000000       0x18 CMakeFiles/objectExample.dir/D_/Pico_Downloads/pico-sdk/lib/tinyusb/src/class/cdc/cdc_device.c.obj
 .text.tud_cdc_n_get_line_coding
                0x00000000       0x24 CMakeFiles/objectExample.dir/D_/Pico_Downloads/pico-sdk/lib/tinyusb/src/class/cdc/cdc_device.c.obj
 .text.tud_cdc_n_set_wanted_char
                0x00000000       0x18 CMakeFiles/objectExample.dir/D_/Pico_Downloads/pico-sdk/lib/tinyusb/src/class/cdc/cdc_device.c.obj
 .text.tud_cdc_n_peek
                0x00000000       0x20 CMakeFiles/objectExample.dir/D_/Pico_Downloads/pico-sdk/lib/tinyusb/src/class/cdc/cdc_device.c.obj
 .text.tud_cdc_n_read_flush
                0x00000000       0x28 CMakeFiles/objectExample.dir/D_/Pico_Downloads/pico-sdk/lib/tinyusb/src/class/cdc/cdc_device.c.obj
 .text          0x00000000        0x0 CMakeFiles/objectExample.dir/D_/Pico_Downloads/pico-sdk/lib/tinyusb/src/class/dfu/dfu_rt_device.c.obj
 .data          0x00000000        0x0 CMakeFiles/objectExample.dir/D_/Pico_Downloads/pico-sdk/lib/tinyusb/src/class/dfu/dfu_rt_device.c.obj
 .bss           0x00000000        0x0 CMakeFiles/objectExample.dir/D_/Pico_Downloads/pico-sdk/lib/tinyusb/src/class/dfu/dfu_rt_device.c.obj
 .debug_line    0x00000000        0x0 CMakeFiles/objectExample.dir/D_/Pico_Downloads/pico-sdk/lib/tinyusb/src/class/dfu/dfu_rt_device.c.obj
 .debug_str     0x00000000       0xfb CMakeFiles/objectExample.dir/D_/Pico_Downloads/pico-sdk/lib/tinyusb/src/class/dfu/dfu_rt_device.c.obj
 .comment       0x00000000       0x4e CMakeFiles/objectExample.dir/D_/Pico_Downloads/pico-sdk/lib/tinyusb/src/class/dfu/dfu_rt_device.c.obj
 .ARM.attributes
                0x00000000       0x32 CMakeFiles/objectExample.dir/D_/Pico_Downloads/pico-sdk/lib/tinyusb/src/class/dfu/dfu_rt_device.c.obj
 .text          0x00000000        0x0 CMakeFiles/objectExample.dir/D_/Pico_Downloads/pico-sdk/lib/tinyusb/src/class/hid/hid_device.c.obj
 .data          0x00000000        0x0 CMakeFiles/objectExample.dir/D_/Pico_Downloads/pico-sdk/lib/tinyusb/src/class/hid/hid_device.c.obj
 .bss           0x00000000        0x0 CMakeFiles/objectExample.dir/D_/Pico_Downloads/pico-sdk/lib/tinyusb/src/class/hid/hid_device.c.obj
 .debug_line    0x00000000        0x0 CMakeFiles/objectExample.dir/D_/Pico_Downloads/pico-sdk/lib/tinyusb/src/class/hid/hid_device.c.obj
 .debug_str     0x00000000       0xf8 CMakeFiles/objectExample.dir/D_/Pico_Downloads/pico-sdk/lib/tinyusb/src/class/hid/hid_device.c.obj
 .comment       0x00000000       0x4e CMakeFiles/objectExample.dir/D_/Pico_Downloads/pico-sdk/lib/tinyusb/src/class/hid/hid_device.c.obj
 .ARM.attributes
                0x00000000       0x32 CMakeFiles/objectExample.dir/D_/Pico_Downloads/pico-sdk/lib/tinyusb/src/class/hid/hid_device.c.obj
 .text          0x00000000        0x0 CMakeFiles/objectExample.dir/D_/Pico_Downloads/pico-sdk/lib/tinyusb/src/class/midi/midi_device.c.obj
 .data          0x00000000        0x0 CMakeFiles/objectExample.dir/D_/Pico_Downloads/pico-sdk/lib/tinyusb/src/class/midi/midi_device.c.obj
 .bss           0x00000000        0x0 CMakeFiles/objectExample.dir/D_/Pico_Downloads/pico-sdk/lib/tinyusb/src/class/midi/midi_device.c.obj
 .debug_line    0x00000000        0x0 CMakeFiles/objectExample.dir/D_/Pico_Downloads/pico-sdk/lib/tinyusb/src/class/midi/midi_device.c.obj
 .debug_str     0x00000000       0xfa CMakeFiles/objectExample.dir/D_/Pico_Downloads/pico-sdk/lib/tinyusb/src/class/midi/midi_device.c.obj
 .comment       0x00000000       0x4e CMakeFiles/objectExample.dir/D_/Pico_Downloads/pico-sdk/lib/tinyusb/src/class/midi/midi_device.c.obj
 .ARM.attributes
                0x00000000       0x32 CMakeFiles/objectExample.dir/D_/Pico_Downloads/pico-sdk/lib/tinyusb/src/class/midi/midi_device.c.obj
 .text          0x00000000        0x0 CMakeFiles/objectExample.dir/D_/Pico_Downloads/pico-sdk/lib/tinyusb/src/class/msc/msc_device.c.obj
 .data          0x00000000        0x0 CMakeFiles/objectExample.dir/D_/Pico_Downloads/pico-sdk/lib/tinyusb/src/class/msc/msc_device.c.obj
 .bss           0x00000000        0x0 CMakeFiles/objectExample.dir/D_/Pico_Downloads/pico-sdk/lib/tinyusb/src/class/msc/msc_device.c.obj
 .debug_line    0x00000000        0x0 CMakeFiles/objectExample.dir/D_/Pico_Downloads/pico-sdk/lib/tinyusb/src/class/msc/msc_device.c.obj
 .debug_str     0x00000000       0xf8 CMakeFiles/objectExample.dir/D_/Pico_Downloads/pico-sdk/lib/tinyusb/src/class/msc/msc_device.c.obj
 .comment       0x00000000       0x4e CMakeFiles/objectExample.dir/D_/Pico_Downloads/pico-sdk/lib/tinyusb/src/class/msc/msc_device.c.obj
 .ARM.attributes
                0x00000000       0x32 CMakeFiles/objectExample.dir/D_/Pico_Downloads/pico-sdk/lib/tinyusb/src/class/msc/msc_device.c.obj
 .text          0x00000000        0x0 CMakeFiles/objectExample.dir/D_/Pico_Downloads/pico-sdk/lib/tinyusb/src/class/net/net_device.c.obj
 .data          0x00000000        0x0 CMakeFiles/objectExample.dir/D_/Pico_Downloads/pico-sdk/lib/tinyusb/src/class/net/net_device.c.obj
 .bss           0x00000000        0x0 CMakeFiles/objectExample.dir/D_/Pico_Downloads/pico-sdk/lib/tinyusb/src/class/net/net_device.c.obj
 .debug_line    0x00000000        0x0 CMakeFiles/objectExample.dir/D_/Pico_Downloads/pico-sdk/lib/tinyusb/src/class/net/net_device.c.obj
 .debug_str     0x00000000       0xf8 CMakeFiles/objectExample.dir/D_/Pico_Downloads/pico-sdk/lib/tinyusb/src/class/net/net_device.c.obj
 .comment       0x00000000       0x4e CMakeFiles/objectExample.dir/D_/Pico_Downloads/pico-sdk/lib/tinyusb/src/class/net/net_device.c.obj
 .ARM.attributes
                0x00000000       0x32 CMakeFiles/objectExample.dir/D_/Pico_Downloads/pico-sdk/lib/tinyusb/src/class/net/net_device.c.obj
 .text          0x00000000        0x0 CMakeFiles/objectExample.dir/D_/Pico_Downloads/pico-sdk/lib/tinyusb/src/class/usbtmc/usbtmc_device.c.obj
 .data          0x00000000        0x0 CMakeFiles/objectExample.dir/D_/Pico_Downloads/pico-sdk/lib/tinyusb/src/class/usbtmc/usbtmc_device.c.obj
 .bss           0x00000000        0x0 CMakeFiles/objectExample.dir/D_/Pico_Downloads/pico-sdk/lib/tinyusb/src/class/usbtmc/usbtmc_device.c.obj
 .debug_line    0x00000000        0x0 CMakeFiles/objectExample.dir/D_/Pico_Downloads/pico-sdk/lib/tinyusb/src/class/usbtmc/usbtmc_device.c.obj
 .debug_str     0x00000000       0xfe CMakeFiles/objectExample.dir/D_/Pico_Downloads/pico-sdk/lib/tinyusb/src/class/usbtmc/usbtmc_device.c.obj
 .comment       0x00000000       0x4e CMakeFiles/objectExample.dir/D_/Pico_Downloads/pico-sdk/lib/tinyusb/src/class/usbtmc/usbtmc_device.c.obj
 .ARM.attributes
                0x00000000       0x32 CMakeFiles/objectExample.dir/D_/Pico_Downloads/pico-sdk/lib/tinyusb/src/class/usbtmc/usbtmc_device.c.obj
 .text          0x00000000        0x0 CMakeFiles/objectExample.dir/D_/Pico_Downloads/pico-sdk/lib/tinyusb/src/class/vendor/vendor_device.c.obj
 .data          0x00000000        0x0 CMakeFiles/objectExample.dir/D_/Pico_Downloads/pico-sdk/lib/tinyusb/src/class/vendor/vendor_device.c.obj
 .bss           0x00000000        0x0 CMakeFiles/objectExample.dir/D_/Pico_Downloads/pico-sdk/lib/tinyusb/src/class/vendor/vendor_device.c.obj
 .debug_line    0x00000000        0x0 CMakeFiles/objectExample.dir/D_/Pico_Downloads/pico-sdk/lib/tinyusb/src/class/vendor/vendor_device.c.obj
 .debug_str     0x00000000       0xfe CMakeFiles/objectExample.dir/D_/Pico_Downloads/pico-sdk/lib/tinyusb/src/class/vendor/vendor_device.c.obj
 .comment       0x00000000       0x4e CMakeFiles/objectExample.dir/D_/Pico_Downloads/pico-sdk/lib/tinyusb/src/class/vendor/vendor_device.c.obj
 .ARM.attributes
                0x00000000       0x32 CMakeFiles/objectExample.dir/D_/Pico_Downloads/pico-sdk/lib/tinyusb/src/class/vendor/vendor_device.c.obj
 .text          0x00000000        0x0 CMakeFiles/objectExample.dir/D_/Pico_Downloads/pico-sdk/lib/tinyusb/src/tusb.c.obj
 .data          0x00000000        0x0 CMakeFiles/objectExample.dir/D_/Pico_Downloads/pico-sdk/lib/tinyusb/src/tusb.c.obj
 .bss           0x00000000        0x0 CMakeFiles/objectExample.dir/D_/Pico_Downloads/pico-sdk/lib/tinyusb/src/tusb.c.obj
 .rodata.dump_str_line.str1.4
                0x00000000        0x7 CMakeFiles/objectExample.dir/D_/Pico_Downloads/pico-sdk/lib/tinyusb/src/tusb.c.obj
 .text.dump_str_line
                0x00000000       0x40 CMakeFiles/objectExample.dir/D_/Pico_Downloads/pico-sdk/lib/tinyusb/src/tusb.c.obj
 .rodata.tu_print_mem.str1.4
                0x00000000       0x15 CMakeFiles/objectExample.dir/D_/Pico_Downloads/pico-sdk/lib/tinyusb/src/tusb.c.obj
 .text.tu_print_mem
                0x00000000       0xe0 CMakeFiles/objectExample.dir/D_/Pico_Downloads/pico-sdk/lib/tinyusb/src/tusb.c.obj
 .rodata.str1.4
                0x00000000      0x132 CMakeFiles/objectExample.dir/D_/Pico_Downloads/pico-sdk/lib/tinyusb/src/tusb.c.obj
 .rodata.tusb_strerr
                0x00000000       0x2c CMakeFiles/objectExample.dir/D_/Pico_Downloads/pico-sdk/lib/tinyusb/src/tusb.c.obj
 .text          0x00000000        0x0 CMakeFiles/objectExample.dir/D_/Pico_Downloads/pico-sdk/lib/tinyusb/src/common/tusb_fifo.c.obj
 .data          0x00000000        0x0 CMakeFiles/objectExample.dir/D_/Pico_Downloads/pico-sdk/lib/tinyusb/src/common/tusb_fifo.c.obj
 .bss           0x00000000        0x0 CMakeFiles/objectExample.dir/D_/Pico_Downloads/pico-sdk/lib/tinyusb/src/common/tusb_fifo.c.obj
 .text.tu_fifo_empty
                0x00000000       0x10 CMakeFiles/objectExample.dir/D_/Pico_Downloads/pico-sdk/lib/tinyusb/src/common/tusb_fifo.c.obj
 .text.tu_fifo_full
                0x00000000       0x24 CMakeFiles/objectExample.dir/D_/Pico_Downloads/pico-sdk/lib/tinyusb/src/common/tusb_fifo.c.obj
 .text.tu_fifo_overflowed
                0x00000000       0x22 CMakeFiles/objectExample.dir/D_/Pico_Downloads/pico-sdk/lib/tinyusb/src/common/tusb_fifo.c.obj
 .text.tu_fifo_correct_read_pointer
                0x00000000       0x1e CMakeFiles/objectExample.dir/D_/Pico_Downloads/pico-sdk/lib/tinyusb/src/common/tusb_fifo.c.obj
 .text.tu_fifo_peek_at
                0x00000000       0x2e CMakeFiles/objectExample.dir/D_/Pico_Downloads/pico-sdk/lib/tinyusb/src/common/tusb_fifo.c.obj
 .text.tu_fifo_peek_at_n
                0x00000000       0x36 CMakeFiles/objectExample.dir/D_/Pico_Downloads/pico-sdk/lib/tinyusb/src/common/tusb_fifo.c.obj
 .text.tu_fifo_advance_write_pointer
                0x00000000       0x12 CMakeFiles/objectExample.dir/D_/Pico_Downloads/pico-sdk/lib/tinyusb/src/common/tusb_fifo.c.obj
 .text.tu_fifo_advance_read_pointer
                0x00000000       0x12 CMakeFiles/objectExample.dir/D_/Pico_Downloads/pico-sdk/lib/tinyusb/src/common/tusb_fifo.c.obj
 .text          0x00000000        0x0 CMakeFiles/objectExample.dir/D_/Pico_Downloads/pico-sdk/src/rp2_common/pico_fix/rp2040_usb_device_enumeration/rp2040_usb_device_enumeration.c.obj
 .data          0x00000000        0x0 CMakeFiles/objectExample.dir/D_/Pico_Downloads/pico-sdk/src/rp2_common/pico_fix/rp2040_usb_device_enumeration/rp2040_usb_device_enumeration.c.obj
 .bss           0x00000000        0x0 CMakeFiles/objectExample.dir/D_/Pico_Downloads/pico-sdk/src/rp2_common/pico_fix/rp2040_usb_device_enumeration/rp2040_usb_device_enumeration.c.obj
 .text.hw_enumeration_fix_finish
                0x00000000       0x20 CMakeFiles/objectExample.dir/D_/Pico_Downloads/pico-sdk/src/rp2_common/pico_fix/rp2040_usb_device_enumeration/rp2040_usb_device_enumeration.c.obj
 .text.hw_enumeration_fix_force_ls_j_done
                0x00000000        0xc CMakeFiles/objectExample.dir/D_/Pico_Downloads/pico-sdk/src/rp2_common/pico_fix/rp2040_usb_device_enumeration/rp2040_usb_device_enumeration.c.obj
 .rodata.hw_enumeration_fix_force_ls_j.str1.4
                0x00000000       0x89 CMakeFiles/objectExample.dir/D_/Pico_Downloads/pico-sdk/src/rp2_common/pico_fix/rp2040_usb_device_enumeration/rp2040_usb_device_enumeration.c.obj
 .text.hw_enumeration_fix_force_ls_j
                0x00000000       0xac CMakeFiles/objectExample.dir/D_/Pico_Downloads/pico-sdk/src/rp2_common/pico_fix/rp2040_usb_device_enumeration/rp2040_usb_device_enumeration.c.obj
 .text.hw_enumeration_fix_wait_se0_callback
                0x00000000       0x24 CMakeFiles/objectExample.dir/D_/Pico_Downloads/pico-sdk/src/rp2_common/pico_fix/rp2040_usb_device_enumeration/rp2040_usb_device_enumeration.c.obj
 .text.hw_enumeration_fix_wait_se0
                0x00000000       0x60 CMakeFiles/objectExample.dir/D_/Pico_Downloads/pico-sdk/src/rp2_common/pico_fix/rp2040_usb_device_enumeration/rp2040_usb_device_enumeration.c.obj
 .text.rp2040_usb_device_enumeration_fix
                0x00000000        0x8 CMakeFiles/objectExample.dir/D_/Pico_Downloads/pico-sdk/src/rp2_common/pico_fix/rp2040_usb_device_enumeration/rp2040_usb_device_enumeration.c.obj
 .rodata.__func__.0
                0x00000000       0x1e CMakeFiles/objectExample.dir/D_/Pico_Downloads/pico-sdk/src/rp2_common/pico_fix/rp2040_usb_device_enumeration/rp2040_usb_device_enumeration.c.obj
 .debug_info    0x00000000      0xa86 CMakeFiles/objectExample.dir/D_/Pico_Downloads/pico-sdk/src/rp2_common/pico_fix/rp2040_usb_device_enumeration/rp2040_usb_device_enumeration.c.obj
 .debug_abbrev  0x00000000      0x359 CMakeFiles/objectExample.dir/D_/Pico_Downloads/pico-sdk/src/rp2_common/pico_fix/rp2040_usb_device_enumeration/rp2040_usb_device_enumeration.c.obj
 .debug_loc     0x00000000      0x34a CMakeFiles/objectExample.dir/D_/Pico_Downloads/pico-sdk/src/rp2_common/pico_fix/rp2040_usb_device_enumeration/rp2040_usb_device_enumeration.c.obj
 .debug_aranges
                0x00000000       0x48 CMakeFiles/objectExample.dir/D_/Pico_Downloads/pico-sdk/src/rp2_common/pico_fix/rp2040_usb_device_enumeration/rp2040_usb_device_enumeration.c.obj
 .debug_ranges  0x00000000       0x38 CMakeFiles/objectExample.dir/D_/Pico_Downloads/pico-sdk/src/rp2_common/pico_fix/rp2040_usb_device_enumeration/rp2040_usb_device_enumeration.c.obj
 .debug_line    0x00000000      0x5ae CMakeFiles/objectExample.dir/D_/Pico_Downloads/pico-sdk/src/rp2_common/pico_fix/rp2040_usb_device_enumeration/rp2040_usb_device_enumeration.c.obj
 .debug_str     0x00000000      0x647 CMakeFiles/objectExample.dir/D_/Pico_Downloads/pico-sdk/src/rp2_common/pico_fix/rp2040_usb_device_enumeration/rp2040_usb_device_enumeration.c.obj
 .comment       0x00000000       0x4e CMakeFiles/objectExample.dir/D_/Pico_Downloads/pico-sdk/src/rp2_common/pico_fix/rp2040_usb_device_enumeration/rp2040_usb_device_enumeration.c.obj
 .debug_frame   0x00000000       0xa8 CMakeFiles/objectExample.dir/D_/Pico_Downloads/pico-sdk/src/rp2_common/pico_fix/rp2040_usb_device_enumeration/rp2040_usb_device_enumeration.c.obj
 .ARM.attributes
                0x00000000       0x2b CMakeFiles/objectExample.dir/D_/Pico_Downloads/pico-sdk/src/rp2_common/pico_fix/rp2040_usb_device_enumeration/rp2040_usb_device_enumeration.c.obj
 .text          0x00000000        0x0 ..\ultrasonic\libpico_ultrasonic_object.a(ultrasonicObject.cpp.obj)
 .data          0x00000000        0x0 ..\ultrasonic\libpico_ultrasonic_object.a(ultrasonicObject.cpp.obj)
 .bss           0x00000000        0x0 ..\ultrasonic\libpico_ultrasonic_object.a(ultrasonicObject.cpp.obj)
 .text._ZN10Ultrasonic7getINCHEv
                0x00000000        0xc ..\ultrasonic\libpico_ultrasonic_object.a(ultrasonicObject.cpp.obj)
 .text          0x00000000        0x0 ..\ultrasonic\libpico_ultrasonic_object.a(ultrasonic.c.obj)
 .data          0x00000000        0x0 ..\ultrasonic\libpico_ultrasonic_object.a(ultrasonic.c.obj)
 .bss           0x00000000        0x0 ..\ultrasonic\libpico_ultrasonic_object.a(ultrasonic.c.obj)
 .text.getInch  0x00000000       0x24 ..\ultrasonic\libpico_ultrasonic_object.a(ultrasonic.c.obj)
 .text          0x00000000        0x0 C:\Users\tfkbr\AppData\Local\Temp\ccU7FSFv.o
 .data          0x00000000        0x0 C:\Users\tfkbr\AppData\Local\Temp\ccU7FSFv.o
 .bss           0x00000000        0x0 C:\Users\tfkbr\AppData\Local\Temp\ccU7FSFv.o
 .data          0x00000000        0x0 c:/progra~2/gnuarm~1/102020~1/bin/../lib/gcc/arm-none-eabi/10.2.1/thumb/v6-m/nofp\libgcc.a(_dvmd_tls.o)
 .bss           0x00000000        0x0 c:/progra~2/gnuarm~1/102020~1/bin/../lib/gcc/arm-none-eabi/10.2.1/thumb/v6-m/nofp\libgcc.a(_dvmd_tls.o)
 .text          0x00000000        0x0 c:/progra~2/gnuarm~1/102020~1/bin/../lib/gcc/arm-none-eabi/10.2.1/../../../../arm-none-eabi/lib/thumb/v6-m/nofp\libg.a(lib_a-calloc.o)
 .data          0x00000000        0x0 c:/progra~2/gnuarm~1/102020~1/bin/../lib/gcc/arm-none-eabi/10.2.1/../../../../arm-none-eabi/lib/thumb/v6-m/nofp\libg.a(lib_a-calloc.o)
 .bss           0x00000000        0x0 c:/progra~2/gnuarm~1/102020~1/bin/../lib/gcc/arm-none-eabi/10.2.1/../../../../arm-none-eabi/lib/thumb/v6-m/nofp\libg.a(lib_a-calloc.o)
 .text          0x00000000        0x0 c:/progra~2/gnuarm~1/102020~1/bin/../lib/gcc/arm-none-eabi/10.2.1/../../../../arm-none-eabi/lib/thumb/v6-m/nofp\libg.a(lib_a-callocr.o)
 .data          0x00000000        0x0 c:/progra~2/gnuarm~1/102020~1/bin/../lib/gcc/arm-none-eabi/10.2.1/../../../../arm-none-eabi/lib/thumb/v6-m/nofp\libg.a(lib_a-callocr.o)
 .bss           0x00000000        0x0 c:/progra~2/gnuarm~1/102020~1/bin/../lib/gcc/arm-none-eabi/10.2.1/../../../../arm-none-eabi/lib/thumb/v6-m/nofp\libg.a(lib_a-callocr.o)
 .text          0x00000000        0x0 c:/progra~2/gnuarm~1/102020~1/bin/../lib/gcc/arm-none-eabi/10.2.1/../../../../arm-none-eabi/lib/thumb/v6-m/nofp\libg.a(lib_a-ctype_.o)
 .data          0x00000000        0x0 c:/progra~2/gnuarm~1/102020~1/bin/../lib/gcc/arm-none-eabi/10.2.1/../../../../arm-none-eabi/lib/thumb/v6-m/nofp\libg.a(lib_a-ctype_.o)
 .bss           0x00000000        0x0 c:/progra~2/gnuarm~1/102020~1/bin/../lib/gcc/arm-none-eabi/10.2.1/../../../../arm-none-eabi/lib/thumb/v6-m/nofp\libg.a(lib_a-ctype_.o)
 .rodata._ctype_
                0x00000000      0x101 c:/progra~2/gnuarm~1/102020~1/bin/../lib/gcc/arm-none-eabi/10.2.1/../../../../arm-none-eabi/lib/thumb/v6-m/nofp\libg.a(lib_a-ctype_.o)
 .ARM.attributes
                0x00000000       0x2c c:/progra~2/gnuarm~1/102020~1/bin/../lib/gcc/arm-none-eabi/10.2.1/../../../../arm-none-eabi/lib/thumb/v6-m/nofp\libg.a(lib_a-ctype_.o)
 .text          0x00000000        0x0 c:/progra~2/gnuarm~1/102020~1/bin/../lib/gcc/arm-none-eabi/10.2.1/../../../../arm-none-eabi/lib/thumb/v6-m/nofp\libg.a(lib_a-impure.o)
 .data          0x00000000        0x0 c:/progra~2/gnuarm~1/102020~1/bin/../lib/gcc/arm-none-eabi/10.2.1/../../../../arm-none-eabi/lib/thumb/v6-m/nofp\libg.a(lib_a-impure.o)
 .bss           0x00000000        0x0 c:/progra~2/gnuarm~1/102020~1/bin/../lib/gcc/arm-none-eabi/10.2.1/../../../../arm-none-eabi/lib/thumb/v6-m/nofp\libg.a(lib_a-impure.o)
 .rodata._global_impure_ptr
                0x00000000        0x4 c:/progra~2/gnuarm~1/102020~1/bin/../lib/gcc/arm-none-eabi/10.2.1/../../../../arm-none-eabi/lib/thumb/v6-m/nofp\libg.a(lib_a-impure.o)
 .text          0x00000000        0x0 c:/progra~2/gnuarm~1/102020~1/bin/../lib/gcc/arm-none-eabi/10.2.1/../../../../arm-none-eabi/lib/thumb/v6-m/nofp\libg.a(lib_a-init.o)
 .data          0x00000000        0x0 c:/progra~2/gnuarm~1/102020~1/bin/../lib/gcc/arm-none-eabi/10.2.1/../../../../arm-none-eabi/lib/thumb/v6-m/nofp\libg.a(lib_a-init.o)
 .bss           0x00000000        0x0 c:/progra~2/gnuarm~1/102020~1/bin/../lib/gcc/arm-none-eabi/10.2.1/../../../../arm-none-eabi/lib/thumb/v6-m/nofp\libg.a(lib_a-init.o)
 .text.__libc_init_array
                0x00000000       0x44 c:/progra~2/gnuarm~1/102020~1/bin/../lib/gcc/arm-none-eabi/10.2.1/../../../../arm-none-eabi/lib/thumb/v6-m/nofp\libg.a(lib_a-init.o)
 .debug_frame   0x00000000       0x2c c:/progra~2/gnuarm~1/102020~1/bin/../lib/gcc/arm-none-eabi/10.2.1/../../../../arm-none-eabi/lib/thumb/v6-m/nofp\libg.a(lib_a-init.o)
 .ARM.attributes
                0x00000000       0x2c c:/progra~2/gnuarm~1/102020~1/bin/../lib/gcc/arm-none-eabi/10.2.1/../../../../arm-none-eabi/lib/thumb/v6-m/nofp\libg.a(lib_a-init.o)
 .text          0x00000000        0x0 c:/progra~2/gnuarm~1/102020~1/bin/../lib/gcc/arm-none-eabi/10.2.1/../../../../arm-none-eabi/lib/thumb/v6-m/nofp\libg.a(lib_a-malloc.o)
 .data          0x00000000        0x0 c:/progra~2/gnuarm~1/102020~1/bin/../lib/gcc/arm-none-eabi/10.2.1/../../../../arm-none-eabi/lib/thumb/v6-m/nofp\libg.a(lib_a-malloc.o)
 .bss           0x00000000        0x0 c:/progra~2/gnuarm~1/102020~1/bin/../lib/gcc/arm-none-eabi/10.2.1/../../../../arm-none-eabi/lib/thumb/v6-m/nofp\libg.a(lib_a-malloc.o)
 .text.free     0x00000000       0x14 c:/progra~2/gnuarm~1/102020~1/bin/../lib/gcc/arm-none-eabi/10.2.1/../../../../arm-none-eabi/lib/thumb/v6-m/nofp\libg.a(lib_a-malloc.o)
 .text          0x00000000        0x0 c:/progra~2/gnuarm~1/102020~1/bin/../lib/gcc/arm-none-eabi/10.2.1/../../../../arm-none-eabi/lib/thumb/v6-m/nofp\libg.a(lib_a-mallocr.o)
 .data          0x00000000        0x0 c:/progra~2/gnuarm~1/102020~1/bin/../lib/gcc/arm-none-eabi/10.2.1/../../../../arm-none-eabi/lib/thumb/v6-m/nofp\libg.a(lib_a-mallocr.o)
 .bss           0x00000000        0x0 c:/progra~2/gnuarm~1/102020~1/bin/../lib/gcc/arm-none-eabi/10.2.1/../../../../arm-none-eabi/lib/thumb/v6-m/nofp\libg.a(lib_a-mallocr.o)
 .text          0x00000000        0x0 c:/progra~2/gnuarm~1/102020~1/bin/../lib/gcc/arm-none-eabi/10.2.1/../../../../arm-none-eabi/lib/thumb/v6-m/nofp\libg.a(lib_a-mlock.o)
 .data          0x00000000        0x0 c:/progra~2/gnuarm~1/102020~1/bin/../lib/gcc/arm-none-eabi/10.2.1/../../../../arm-none-eabi/lib/thumb/v6-m/nofp\libg.a(lib_a-mlock.o)
 .bss           0x00000000        0x0 c:/progra~2/gnuarm~1/102020~1/bin/../lib/gcc/arm-none-eabi/10.2.1/../../../../arm-none-eabi/lib/thumb/v6-m/nofp\libg.a(lib_a-mlock.o)
 .text          0x00000000        0x0 c:/progra~2/gnuarm~1/102020~1/bin/../lib/gcc/arm-none-eabi/10.2.1/../../../../arm-none-eabi/lib/thumb/v6-m/nofp\libg.a(lib_a-sbrkr.o)
 .data          0x00000000        0x0 c:/progra~2/gnuarm~1/102020~1/bin/../lib/gcc/arm-none-eabi/10.2.1/../../../../arm-none-eabi/lib/thumb/v6-m/nofp\libg.a(lib_a-sbrkr.o)
 .bss           0x00000000        0x0 c:/progra~2/gnuarm~1/102020~1/bin/../lib/gcc/arm-none-eabi/10.2.1/../../../../arm-none-eabi/lib/thumb/v6-m/nofp\libg.a(lib_a-sbrkr.o)
 .text          0x00000000        0x0 c:/progra~2/gnuarm~1/102020~1/bin/../lib/gcc/arm-none-eabi/10.2.1/../../../../arm-none-eabi/lib/thumb/v6-m/nofp\libg.a(lib_a-strlen-stub.o)
 .data          0x00000000        0x0 c:/progra~2/gnuarm~1/102020~1/bin/../lib/gcc/arm-none-eabi/10.2.1/../../../../arm-none-eabi/lib/thumb/v6-m/nofp\libg.a(lib_a-strlen-stub.o)
 .bss           0x00000000        0x0 c:/progra~2/gnuarm~1/102020~1/bin/../lib/gcc/arm-none-eabi/10.2.1/../../../../arm-none-eabi/lib/thumb/v6-m/nofp\libg.a(lib_a-strlen-stub.o)
 .text          0x00000000        0x0 c:/progra~2/gnuarm~1/102020~1/bin/../lib/gcc/arm-none-eabi/10.2.1/../../../../arm-none-eabi/lib/thumb/v6-m/nofp\libg.a(lib_a-freer.o)
 .data          0x00000000        0x0 c:/progra~2/gnuarm~1/102020~1/bin/../lib/gcc/arm-none-eabi/10.2.1/../../../../arm-none-eabi/lib/thumb/v6-m/nofp\libg.a(lib_a-freer.o)
 .bss           0x00000000        0x0 c:/progra~2/gnuarm~1/102020~1/bin/../lib/gcc/arm-none-eabi/10.2.1/../../../../arm-none-eabi/lib/thumb/v6-m/nofp\libg.a(lib_a-freer.o)
 .text          0x00000000        0x0 c:/progra~2/gnuarm~1/102020~1/bin/../lib/gcc/arm-none-eabi/10.2.1/../../../../arm-none-eabi/lib/thumb/v6-m/nofp\libg.a(lib_a-lock.o)
 .data          0x00000000        0x0 c:/progra~2/gnuarm~1/102020~1/bin/../lib/gcc/arm-none-eabi/10.2.1/../../../../arm-none-eabi/lib/thumb/v6-m/nofp\libg.a(lib_a-lock.o)
 .bss           0x00000000        0x0 c:/progra~2/gnuarm~1/102020~1/bin/../lib/gcc/arm-none-eabi/10.2.1/../../../../arm-none-eabi/lib/thumb/v6-m/nofp\libg.a(lib_a-lock.o)
 .text.__retarget_lock_init
                0x00000000        0x4 c:/progra~2/gnuarm~1/102020~1/bin/../lib/gcc/arm-none-eabi/10.2.1/../../../../arm-none-eabi/lib/thumb/v6-m/nofp\libg.a(lib_a-lock.o)
 .text.__retarget_lock_init_recursive
                0x00000000        0x4 c:/progra~2/gnuarm~1/102020~1/bin/../lib/gcc/arm-none-eabi/10.2.1/../../../../arm-none-eabi/lib/thumb/v6-m/nofp\libg.a(lib_a-lock.o)
 .text.__retarget_lock_close
                0x00000000        0x4 c:/progra~2/gnuarm~1/102020~1/bin/../lib/gcc/arm-none-eabi/10.2.1/../../../../arm-none-eabi/lib/thumb/v6-m/nofp\libg.a(lib_a-lock.o)
 .text.__retarget_lock_close_recursive
                0x00000000        0x4 c:/progra~2/gnuarm~1/102020~1/bin/../lib/gcc/arm-none-eabi/10.2.1/../../../../arm-none-eabi/lib/thumb/v6-m/nofp\libg.a(lib_a-lock.o)
 .text.__retarget_lock_acquire
                0x00000000        0x4 c:/progra~2/gnuarm~1/102020~1/bin/../lib/gcc/arm-none-eabi/10.2.1/../../../../arm-none-eabi/lib/thumb/v6-m/nofp\libg.a(lib_a-lock.o)
 .text.__retarget_lock_try_acquire
                0x00000000        0x4 c:/progra~2/gnuarm~1/102020~1/bin/../lib/gcc/arm-none-eabi/10.2.1/../../../../arm-none-eabi/lib/thumb/v6-m/nofp\libg.a(lib_a-lock.o)
 .text.__retarget_lock_try_acquire_recursive
                0x00000000        0x4 c:/progra~2/gnuarm~1/102020~1/bin/../lib/gcc/arm-none-eabi/10.2.1/../../../../arm-none-eabi/lib/thumb/v6-m/nofp\libg.a(lib_a-lock.o)
 .text.__retarget_lock_release
                0x00000000        0x4 c:/progra~2/gnuarm~1/102020~1/bin/../lib/gcc/arm-none-eabi/10.2.1/../../../../arm-none-eabi/lib/thumb/v6-m/nofp\libg.a(lib_a-lock.o)
 .bss.__lock___arc4random_mutex
                0x00000000        0x1 c:/progra~2/gnuarm~1/102020~1/bin/../lib/gcc/arm-none-eabi/10.2.1/../../../../arm-none-eabi/lib/thumb/v6-m/nofp\libg.a(lib_a-lock.o)
 .bss.__lock___at_quick_exit_mutex
                0x00000000        0x1 c:/progra~2/gnuarm~1/102020~1/bin/../lib/gcc/arm-none-eabi/10.2.1/../../../../arm-none-eabi/lib/thumb/v6-m/nofp\libg.a(lib_a-lock.o)
 .bss.__lock___atexit_recursive_mutex
                0x00000000        0x1 c:/progra~2/gnuarm~1/102020~1/bin/../lib/gcc/arm-none-eabi/10.2.1/../../../../arm-none-eabi/lib/thumb/v6-m/nofp\libg.a(lib_a-lock.o)
 .bss.__lock___dd_hash_mutex
                0x00000000        0x1 c:/progra~2/gnuarm~1/102020~1/bin/../lib/gcc/arm-none-eabi/10.2.1/../../../../arm-none-eabi/lib/thumb/v6-m/nofp\libg.a(lib_a-lock.o)
 .bss.__lock___env_recursive_mutex
                0x00000000        0x1 c:/progra~2/gnuarm~1/102020~1/bin/../lib/gcc/arm-none-eabi/10.2.1/../../../../arm-none-eabi/lib/thumb/v6-m/nofp\libg.a(lib_a-lock.o)
 .bss.__lock___sfp_recursive_mutex
                0x00000000        0x1 c:/progra~2/gnuarm~1/102020~1/bin/../lib/gcc/arm-none-eabi/10.2.1/../../../../arm-none-eabi/lib/thumb/v6-m/nofp\libg.a(lib_a-lock.o)
 .bss.__lock___sinit_recursive_mutex
                0x00000000        0x1 c:/progra~2/gnuarm~1/102020~1/bin/../lib/gcc/arm-none-eabi/10.2.1/../../../../arm-none-eabi/lib/thumb/v6-m/nofp\libg.a(lib_a-lock.o)
 .bss.__lock___tz_mutex
                0x00000000        0x1 c:/progra~2/gnuarm~1/102020~1/bin/../lib/gcc/arm-none-eabi/10.2.1/../../../../arm-none-eabi/lib/thumb/v6-m/nofp\libg.a(lib_a-lock.o)
 .text          0x00000000        0x0 c:/progra~2/gnuarm~1/102020~1/bin/../lib/gcc/arm-none-eabi/10.2.1/../../../../arm-none-eabi/lib/thumb/v6-m/nofp\libg.a(lib_a-reent.o)
 .data          0x00000000        0x0 c:/progra~2/gnuarm~1/102020~1/bin/../lib/gcc/arm-none-eabi/10.2.1/../../../../arm-none-eabi/lib/thumb/v6-m/nofp\libg.a(lib_a-reent.o)
 .bss           0x00000000        0x0 c:/progra~2/gnuarm~1/102020~1/bin/../lib/gcc/arm-none-eabi/10.2.1/../../../../arm-none-eabi/lib/thumb/v6-m/nofp\libg.a(lib_a-reent.o)
 .text.cleanup_glue
                0x00000000       0x50 c:/progra~2/gnuarm~1/102020~1/bin/../lib/gcc/arm-none-eabi/10.2.1/../../../../arm-none-eabi/lib/thumb/v6-m/nofp\libg.a(lib_a-reent.o)
 .text._reclaim_reent
                0x00000000       0xa0 c:/progra~2/gnuarm~1/102020~1/bin/../lib/gcc/arm-none-eabi/10.2.1/../../../../arm-none-eabi/lib/thumb/v6-m/nofp\libg.a(lib_a-reent.o)
 .text          0x00000000        0x0 c:/progra~2/gnuarm~1/102020~1/bin/../lib/gcc/arm-none-eabi/10.2.1/thumb/v6-m/nofp/crtend.o
 .data          0x00000000        0x0 c:/progra~2/gnuarm~1/102020~1/bin/../lib/gcc/arm-none-eabi/10.2.1/thumb/v6-m/nofp/crtend.o
 .bss           0x00000000        0x0 c:/progra~2/gnuarm~1/102020~1/bin/../lib/gcc/arm-none-eabi/10.2.1/thumb/v6-m/nofp/crtend.o
 .rodata        0x00000000       0x24 c:/progra~2/gnuarm~1/102020~1/bin/../lib/gcc/arm-none-eabi/10.2.1/thumb/v6-m/nofp/crtend.o
 .eh_frame      0x00000000        0x4 c:/progra~2/gnuarm~1/102020~1/bin/../lib/gcc/arm-none-eabi/10.2.1/thumb/v6-m/nofp/crtend.o
 .ARM.attributes
                0x00000000       0x2c c:/progra~2/gnuarm~1/102020~1/bin/../lib/gcc/arm-none-eabi/10.2.1/thumb/v6-m/nofp/crtend.o
 .text          0x00000000        0x0 c:/progra~2/gnuarm~1/102020~1/bin/../lib/gcc/arm-none-eabi/10.2.1/thumb/v6-m/nofp/crtn.o
 .data          0x00000000        0x0 c:/progra~2/gnuarm~1/102020~1/bin/../lib/gcc/arm-none-eabi/10.2.1/thumb/v6-m/nofp/crtn.o
 .bss           0x00000000        0x0 c:/progra~2/gnuarm~1/102020~1/bin/../lib/gcc/arm-none-eabi/10.2.1/thumb/v6-m/nofp/crtn.o
 .init          0x00000000        0x8 c:/progra~2/gnuarm~1/102020~1/bin/../lib/gcc/arm-none-eabi/10.2.1/thumb/v6-m/nofp/crtn.o
 .fini          0x00000000        0x8 c:/progra~2/gnuarm~1/102020~1/bin/../lib/gcc/arm-none-eabi/10.2.1/thumb/v6-m/nofp/crtn.o
 .ARM.attributes
                0x00000000       0x1e c:/progra~2/gnuarm~1/102020~1/bin/../lib/gcc/arm-none-eabi/10.2.1/thumb/v6-m/nofp/crtn.o

Memory Configuration

Name             Origin             Length             Attributes
FLASH            0x10000000         0x00200000         xr
RAM              0x20000000         0x00040000         xrw
SCRATCH_X        0x20040000         0x00001000         xrw
SCRATCH_Y        0x20041000         0x00001000         xrw
*default*        0x00000000         0xffffffff

Linker script and memory map

LOAD c:/progra~2/gnuarm~1/102020~1/bin/../lib/gcc/arm-none-eabi/10.2.1/thumb/v6-m/nofp/crti.o
LOAD c:/progra~2/gnuarm~1/102020~1/bin/../lib/gcc/arm-none-eabi/10.2.1/thumb/v6-m/nofp/crtbegin.o
LOAD c:/progra~2/gnuarm~1/102020~1/bin/../lib/gcc/arm-none-eabi/10.2.1/../../../../arm-none-eabi/lib/thumb/v6-m/nofp/crt0.o

.flash_begin    0x10000000        0x0
                0x10000000                __flash_binary_start = .

.boot2          0x10000000      0x100
                0x10000000                __boot2_start__ = .
 *(.boot2)
 .boot2         0x10000000      0x100 C:\Users\tfkbr\AppData\Local\Temp\ccU7FSFv.o
                0x10000100                __boot2_end__ = .
                0x00000001                ASSERT (((__boot2_end__ - __boot2_start__) == 0x100), ERROR: Pico second stage bootloader must be 256 bytes in size)

.text           0x10000100     0x70e8
                0x10000100                __logical_binary_start = .
 *(.vectors)
 .vectors       0x10000100       0xd4 CMakeFiles/objectExample.dir/D_/Pico_Downloads/pico-sdk/src/rp2_common/pico_standard_link/crt0.S.obj
                0x10000100                __vectors
                0x100001c0                isr_invalid
                0x100001c2                isr_nmi
                0x100001c4                isr_hardfault
                0x100001c6                isr_svcall
                0x100001c8                isr_pendsv
                0x100001ca                isr_systick
                0x100001cc                isr_irq11
                0x100001cc                isr_irq5
                0x100001cc                isr_irq23
                0x100001cc                isr_irq18
                0x100001cc                isr_irq31
                0x100001cc                isr_irq28
                0x100001cc                isr_irq19
                0x100001cc                isr_irq0
                0x100001cc                isr_irq6
                0x100001cc                isr_irq27
                0x100001cc                isr_irq12
                0x100001cc                isr_irq22
                0x100001cc                isr_irq13
                0x100001cc                isr_irq17
                0x100001cc                isr_irq14
                0x100001cc                isr_irq2
                0x100001cc                isr_irq10
                0x100001cc                isr_irq8
                0x100001cc                isr_irq24
                0x100001cc                isr_irq1
                0x100001cc                isr_irq7
                0x100001cc                isr_irq21
                0x100001cc                isr_irq20
                0x100001cc                isr_irq15
                0x100001cc                isr_irq25
                0x100001cc                __unhandled_user_irq
                0x100001cc                isr_irq4
                0x100001cc                isr_irq16
                0x100001cc                isr_irq29
                0x100001cc                isr_irq26
                0x100001cc                isr_irq3
                0x100001cc                isr_irq30
                0x100001cc                isr_irq9
                0x100001d2                unhandled_user_irq_num_in_r0
 *(.binary_info_header)
 .binary_info_header
                0x100001d4       0x14 CMakeFiles/objectExample.dir/D_/Pico_Downloads/pico-sdk/src/rp2_common/pico_standard_link/crt0.S.obj
                0x100001e8                __binary_info_header_end = .
 *(.reset)
 .reset         0x100001e8       0xa8 CMakeFiles/objectExample.dir/D_/Pico_Downloads/pico-sdk/src/rp2_common/pico_standard_link/crt0.S.obj
                0x100001e8                _entry_point
                0x10000266                __get_current_exception
 .reset         0x10000290       0x30 CMakeFiles/objectExample.dir/D_/Pico_Downloads/pico-sdk/src/rp2_common/pico_standard_link/binary_info.c.obj
 *(.init)
 .init          0x100002c0        0x4 c:/progra~2/gnuarm~1/102020~1/bin/../lib/gcc/arm-none-eabi/10.2.1/thumb/v6-m/nofp/crti.o
                0x100002c0                _init
 *(EXCLUDE_FILE(*libm.a: *libc.a:*lib_a-mem*.o *libgcc.a:) .text*)
 .text          0x100002c4       0x48 c:/progra~2/gnuarm~1/102020~1/bin/../lib/gcc/arm-none-eabi/10.2.1/thumb/v6-m/nofp/crtbegin.o
 .text._Z41__static_initialization_and_destruction_0ii
                0x1000030c       0x30 CMakeFiles/objectExample.dir/objectExample.cpp.obj
 .text.main     0x1000033c       0x24 CMakeFiles/objectExample.dir/objectExample.cpp.obj
                0x1000033c                main
 .text._GLOBAL__sub_I_trigPin
                0x10000360       0x10 CMakeFiles/objectExample.dir/objectExample.cpp.obj
 .text.gpio_set_function
                0x10000370       0x30 CMakeFiles/objectExample.dir/D_/Pico_Downloads/pico-sdk/src/rp2_common/hardware_gpio/gpio.c.obj
                0x10000370                gpio_set_function
 .text.gpio_init
                0x100003a0       0x16 CMakeFiles/objectExample.dir/D_/Pico_Downloads/pico-sdk/src/rp2_common/hardware_gpio/gpio.c.obj
                0x100003a0                gpio_init
 *fill*         0x100003b6        0x2 
 .text.hw_claim_lock
                0x100003b8       0x18 CMakeFiles/objectExample.dir/D_/Pico_Downloads/pico-sdk/src/rp2_common/hardware_claim/claim.c.obj
                0x100003b8                hw_claim_lock
 .text.hw_claim_unlock
                0x100003d0       0x14 CMakeFiles/objectExample.dir/D_/Pico_Downloads/pico-sdk/src/rp2_common/hardware_claim/claim.c.obj
                0x100003d0                hw_claim_unlock
 .text.hw_claim_or_assert
                0x100003e4       0x34 CMakeFiles/objectExample.dir/D_/Pico_Downloads/pico-sdk/src/rp2_common/hardware_claim/claim.c.obj
                0x100003e4                hw_claim_or_assert
 .text.hw_claim_unused_from_range
                0x10000418       0x56 CMakeFiles/objectExample.dir/D_/Pico_Downloads/pico-sdk/src/rp2_common/hardware_claim/claim.c.obj
                0x10000418                hw_claim_unused_from_range
 *fill*         0x1000046e        0x2 
 .text.spin_locks_reset
                0x10000470       0x20 CMakeFiles/objectExample.dir/D_/Pico_Downloads/pico-sdk/src/rp2_common/hardware_sync/sync.c.obj
                0x10000470                spin_locks_reset
 .text.next_striped_spin_lock_num
                0x10000490       0x1c CMakeFiles/objectExample.dir/D_/Pico_Downloads/pico-sdk/src/rp2_common/hardware_sync/sync.c.obj
                0x10000490                next_striped_spin_lock_num
 .text.spin_lock_claim_unused
                0x100004ac       0x20 CMakeFiles/objectExample.dir/D_/Pico_Downloads/pico-sdk/src/rp2_common/hardware_sync/sync.c.obj
                0x100004ac                spin_lock_claim_unused
 .text.running_on_fpga
                0x100004cc       0x14 CMakeFiles/objectExample.dir/D_/Pico_Downloads/pico-sdk/src/rp2_common/pico_platform/platform.c.obj
                0x100004cc                running_on_fpga
 .text.sev_callback
                0x100004e0        0x8 CMakeFiles/objectExample.dir/D_/Pico_Downloads/pico-sdk/src/common/pico_time/time.c.obj
 .text.timer_pool_entry_comparator
                0x100004e8       0x7c CMakeFiles/objectExample.dir/D_/Pico_Downloads/pico-sdk/src/common/pico_time/time.c.obj
                0x100004e8                timer_pool_entry_comparator
 .text.ph_add_child_node
                0x10000564       0xa4 CMakeFiles/objectExample.dir/D_/Pico_Downloads/pico-sdk/src/common/pico_time/time.c.obj
 .text.ph_merge_nodes
                0x10000608       0x3e CMakeFiles/objectExample.dir/D_/Pico_Downloads/pico-sdk/src/common/pico_time/time.c.obj
 *fill*         0x10000646        0x2 
 .text.add_alarm_under_lock
                0x10000648      0x178 CMakeFiles/objectExample.dir/D_/Pico_Downloads/pico-sdk/src/common/pico_time/time.c.obj
 .text.alarm_pool_alarm_callback
                0x100007c0      0x2e4 CMakeFiles/objectExample.dir/D_/Pico_Downloads/pico-sdk/src/common/pico_time/time.c.obj
 .text.alarm_pool_get_default
                0x10000aa4       0x28 CMakeFiles/objectExample.dir/D_/Pico_Downloads/pico-sdk/src/common/pico_time/time.c.obj
                0x10000aa4                alarm_pool_get_default
 .text.alarm_pool_create
                0x10000acc       0x6c CMakeFiles/objectExample.dir/D_/Pico_Downloads/pico-sdk/src/common/pico_time/time.c.obj
                0x10000acc                alarm_pool_create
 .text.alarm_pool_init_default
                0x10000b38       0x20 CMakeFiles/objectExample.dir/D_/Pico_Downloads/pico-sdk/src/common/pico_time/time.c.obj
                0x10000b38                alarm_pool_init_default
 .text.alarm_pool_add_alarm_at
                0x10000b58      0x128 CMakeFiles/objectExample.dir/D_/Pico_Downloads/pico-sdk/src/common/pico_time/time.c.obj
                0x10000b58                alarm_pool_add_alarm_at
 .text.alarm_pool_cancel_alarm
                0x10000c80       0xec CMakeFiles/objectExample.dir/D_/Pico_Downloads/pico-sdk/src/common/pico_time/time.c.obj
                0x10000c80                alarm_pool_cancel_alarm
 .text.sleep_until
                0x10000d6c       0x94 CMakeFiles/objectExample.dir/D_/Pico_Downloads/pico-sdk/src/common/pico_time/time.c.obj
                0x10000d6c                sleep_until
 .text.sleep_us
                0x10000e00       0x2c CMakeFiles/objectExample.dir/D_/Pico_Downloads/pico-sdk/src/common/pico_time/time.c.obj
                0x10000e00                sleep_us
 .text.sleep_ms
                0x10000e2c       0x14 CMakeFiles/objectExample.dir/D_/Pico_Downloads/pico-sdk/src/common/pico_time/time.c.obj
                0x10000e2c                sleep_ms
 .text.best_effort_wfe_or_timeout
                0x10000e40       0x80 CMakeFiles/objectExample.dir/D_/Pico_Downloads/pico-sdk/src/common/pico_time/time.c.obj
                0x10000e40                best_effort_wfe_or_timeout
 .text.hardware_alarm_irq_handler
                0x10000ec0       0x8c CMakeFiles/objectExample.dir/D_/Pico_Downloads/pico-sdk/src/rp2_common/hardware_timer/timer.c.obj
 .text.hardware_alarm_claim
                0x10000f4c       0x18 CMakeFiles/objectExample.dir/D_/Pico_Downloads/pico-sdk/src/rp2_common/hardware_timer/timer.c.obj
                0x10000f4c                hardware_alarm_claim
 .text.time_us_64
                0x10000f64       0x18 CMakeFiles/objectExample.dir/D_/Pico_Downloads/pico-sdk/src/rp2_common/hardware_timer/timer.c.obj
                0x10000f64                time_us_64
 .text.busy_wait_until
                0x10000f7c       0x28 CMakeFiles/objectExample.dir/D_/Pico_Downloads/pico-sdk/src/rp2_common/hardware_timer/timer.c.obj
                0x10000f7c                busy_wait_until
 .text.hardware_alarm_set_callback
                0x10000fa4       0x90 CMakeFiles/objectExample.dir/D_/Pico_Downloads/pico-sdk/src/rp2_common/hardware_timer/timer.c.obj
                0x10000fa4                hardware_alarm_set_callback
 .text.hardware_alarm_set_target
                0x10001034       0xd0 CMakeFiles/objectExample.dir/D_/Pico_Downloads/pico-sdk/src/rp2_common/hardware_timer/timer.c.obj
                0x10001034                hardware_alarm_set_target
 .text.hardware_alarm_cancel
                0x10001104       0x40 CMakeFiles/objectExample.dir/D_/Pico_Downloads/pico-sdk/src/rp2_common/hardware_timer/timer.c.obj
                0x10001104                hardware_alarm_cancel
 .text.lock_init
                0x10001144       0x30 CMakeFiles/objectExample.dir/D_/Pico_Downloads/pico-sdk/src/common/pico_sync/lock_core.c.obj
                0x10001144                lock_init
 .text.mutex_init
                0x10001174       0x1a CMakeFiles/objectExample.dir/D_/Pico_Downloads/pico-sdk/src/common/pico_sync/mutex.c.obj
                0x10001174                mutex_init
 .text.critical_section_init_with_lock_num
                0x1000118e        0xc CMakeFiles/objectExample.dir/D_/Pico_Downloads/pico-sdk/src/common/pico_sync/critical_section.c.obj
                0x1000118e                critical_section_init_with_lock_num
 .text.critical_section_init
                0x1000119a       0x14 CMakeFiles/objectExample.dir/D_/Pico_Downloads/pico-sdk/src/common/pico_sync/critical_section.c.obj
                0x1000119a                critical_section_init
 *fill*         0x100011ae        0x2 
 .text.ph_add_child_node
                0x100011b0       0xa4 CMakeFiles/objectExample.dir/D_/Pico_Downloads/pico-sdk/src/common/pico_util/pheap.c.obj
 .text.ph_merge_nodes
                0x10001254       0x3e CMakeFiles/objectExample.dir/D_/Pico_Downloads/pico-sdk/src/common/pico_util/pheap.c.obj
 *fill*         0x10001292        0x2 
 .text.ph_clear
                0x10001294       0x74 CMakeFiles/objectExample.dir/D_/Pico_Downloads/pico-sdk/src/common/pico_util/pheap.c.obj
                0x10001294                ph_clear
 .text.ph_create
                0x10001308       0x2c CMakeFiles/objectExample.dir/D_/Pico_Downloads/pico-sdk/src/common/pico_util/pheap.c.obj
                0x10001308                ph_create
 .text.ph_merge_two_pass
                0x10001334       0xa8 CMakeFiles/objectExample.dir/D_/Pico_Downloads/pico-sdk/src/common/pico_util/pheap.c.obj
                0x10001334                ph_merge_two_pass
 .text.ph_remove_any_head
                0x100013dc      0x108 CMakeFiles/objectExample.dir/D_/Pico_Downloads/pico-sdk/src/common/pico_util/pheap.c.obj
 .text.ph_remove_head_reserve
                0x100014e4       0x14 CMakeFiles/objectExample.dir/D_/Pico_Downloads/pico-sdk/src/common/pico_util/pheap.c.obj
                0x100014e4                ph_remove_head_reserve
 .text.ph_delete
                0x100014f8       0xf8 CMakeFiles/objectExample.dir/D_/Pico_Downloads/pico-sdk/src/common/pico_util/pheap.c.obj
                0x100014f8                ph_delete
 .text.runtime_init
                0x100015f0       0xcc CMakeFiles/objectExample.dir/D_/Pico_Downloads/pico-sdk/src/rp2_common/pico_runtime/runtime.c.obj
                0x100015f0                runtime_init
 .text._exit    0x100016bc        0x4 CMakeFiles/objectExample.dir/D_/Pico_Downloads/pico-sdk/src/rp2_common/pico_runtime/runtime.c.obj
                0x100016bc                _exit
 .text._sbrk    0x100016c0       0x38 CMakeFiles/objectExample.dir/D_/Pico_Downloads/pico-sdk/src/rp2_common/pico_runtime/runtime.c.obj
                0x100016c0                _sbrk
 .text.exit     0x100016f8        0x6 CMakeFiles/objectExample.dir/D_/Pico_Downloads/pico-sdk/src/rp2_common/pico_runtime/runtime.c.obj
                0x100016f8                exit
 *fill*         0x100016fe        0x2 
 .text.__assert_func
                0x10001700       0x3c CMakeFiles/objectExample.dir/D_/Pico_Downloads/pico-sdk/src/rp2_common/pico_runtime/runtime.c.obj
                0x10001700                __assert_func
 .text.panic    0x1000173c       0x30 CMakeFiles/objectExample.dir/D_/Pico_Downloads/pico-sdk/src/rp2_common/pico_runtime/runtime.c.obj
                0x1000173c                panic
 .text.clock_configure
                0x1000176c       0xe8 CMakeFiles/objectExample.dir/D_/Pico_Downloads/pico-sdk/src/rp2_common/hardware_clocks/clocks.c.obj
                0x1000176c                clock_configure
 .text.clocks_init
                0x10001854      0x124 CMakeFiles/objectExample.dir/D_/Pico_Downloads/pico-sdk/src/rp2_common/hardware_clocks/clocks.c.obj
                0x10001854                clocks_init
 .text.watchdog_start_tick
                0x10001978       0x10 CMakeFiles/objectExample.dir/D_/Pico_Downloads/pico-sdk/src/rp2_common/hardware_watchdog/watchdog.c.obj
                0x10001978                watchdog_start_tick
 .text.xosc_init
                0x10001988       0x28 CMakeFiles/objectExample.dir/D_/Pico_Downloads/pico-sdk/src/rp2_common/hardware_xosc/xosc.c.obj
                0x10001988                xosc_init
 .text.pll_init
                0x100019b0       0xd4 CMakeFiles/objectExample.dir/D_/Pico_Downloads/pico-sdk/src/rp2_common/hardware_pll/pll.c.obj
                0x100019b0                pll_init
 .text.set_raw_irq_handler_and_unlock
                0x10001a84       0x28 CMakeFiles/objectExample.dir/D_/Pico_Downloads/pico-sdk/src/rp2_common/hardware_irq/irq.c.obj
 .text.make_branch
                0x10001aac       0x34 CMakeFiles/objectExample.dir/D_/Pico_Downloads/pico-sdk/src/rp2_common/hardware_irq/irq.c.obj
 .text.insert_branch_and_link
                0x10001ae0       0x40 CMakeFiles/objectExample.dir/D_/Pico_Downloads/pico-sdk/src/rp2_common/hardware_irq/irq.c.obj
 .text.irq_is_enabled
                0x10001b20       0x18 CMakeFiles/objectExample.dir/D_/Pico_Downloads/pico-sdk/src/rp2_common/hardware_irq/irq.c.obj
                0x10001b20                irq_is_enabled
 .text.irq_set_mask_enabled
                0x10001b38       0x20 CMakeFiles/objectExample.dir/D_/Pico_Downloads/pico-sdk/src/rp2_common/hardware_irq/irq.c.obj
                0x10001b38                irq_set_mask_enabled
 .text.irq_set_enabled
                0x10001b58        0xe CMakeFiles/objectExample.dir/D_/Pico_Downloads/pico-sdk/src/rp2_common/hardware_irq/irq.c.obj
                0x10001b58                irq_set_enabled
 *fill*         0x10001b66        0x2 
 .text.irq_set_pending
                0x10001b68       0x10 CMakeFiles/objectExample.dir/D_/Pico_Downloads/pico-sdk/src/rp2_common/hardware_irq/irq.c.obj
                0x10001b68                irq_set_pending
 .text.irq_get_vtable_handler
                0x10001b78       0x10 CMakeFiles/objectExample.dir/D_/Pico_Downloads/pico-sdk/src/rp2_common/hardware_irq/irq.c.obj
                0x10001b78                irq_get_vtable_handler
 .text.irq_set_exclusive_handler
                0x10001b88       0x54 CMakeFiles/objectExample.dir/D_/Pico_Downloads/pico-sdk/src/rp2_common/hardware_irq/irq.c.obj
                0x10001b88                irq_set_exclusive_handler
 .text.irq_remove_handler
                0x10001bdc      0x1b4 CMakeFiles/objectExample.dir/D_/Pico_Downloads/pico-sdk/src/rp2_common/hardware_irq/irq.c.obj
                0x10001bdc                irq_remove_handler
 .text.irq_set_priority
                0x10001d90       0x28 CMakeFiles/objectExample.dir/D_/Pico_Downloads/pico-sdk/src/rp2_common/hardware_irq/irq.c.obj
                0x10001d90                irq_set_priority
 .text.irq_add_tail_to_free_list
                0x10001db8       0xf8 CMakeFiles/objectExample.dir/D_/Pico_Downloads/pico-sdk/src/rp2_common/hardware_irq/irq.c.obj
                0x10001db8                irq_add_tail_to_free_list
 .text.irq_init_priorities
                0x10001eb0       0x16 CMakeFiles/objectExample.dir/D_/Pico_Downloads/pico-sdk/src/rp2_common/hardware_irq/irq.c.obj
                0x10001eb0                irq_init_priorities
 .text._out_null
                0x10001ec6        0x2 CMakeFiles/objectExample.dir/D_/Pico_Downloads/pico-sdk/src/rp2_common/pico_printf/printf.c.obj
 .text._out_fct
                0x10001ec8        0xe CMakeFiles/objectExample.dir/D_/Pico_Downloads/pico-sdk/src/rp2_common/pico_printf/printf.c.obj
 .text._atoi    0x10001ed6       0x24 CMakeFiles/objectExample.dir/D_/Pico_Downloads/pico-sdk/src/rp2_common/pico_printf/printf.c.obj
 .text._out_rev
                0x10001efa       0xae CMakeFiles/objectExample.dir/D_/Pico_Downloads/pico-sdk/src/rp2_common/pico_printf/printf.c.obj
 .text._ntoa_format
                0x10001fa8      0x112 CMakeFiles/objectExample.dir/D_/Pico_Downloads/pico-sdk/src/rp2_common/pico_printf/printf.c.obj
 .text._ntoa_long
                0x100020ba       0xbc CMakeFiles/objectExample.dir/D_/Pico_Downloads/pico-sdk/src/rp2_common/pico_printf/printf.c.obj
 .text._ntoa_long_long
                0x10002176       0xe2 CMakeFiles/objectExample.dir/D_/Pico_Downloads/pico-sdk/src/rp2_common/pico_printf/printf.c.obj
 .text._etoa    0x10002258      0x404 CMakeFiles/objectExample.dir/D_/Pico_Downloads/pico-sdk/src/rp2_common/pico_printf/printf.c.obj
 .text._ftoa    0x1000265c      0x354 CMakeFiles/objectExample.dir/D_/Pico_Downloads/pico-sdk/src/rp2_common/pico_printf/printf.c.obj
 .text._vsnprintf
                0x100029b0      0x624 CMakeFiles/objectExample.dir/D_/Pico_Downloads/pico-sdk/src/rp2_common/pico_printf/printf.c.obj
 .text.vfctprintf
                0x10002fd4       0x20 CMakeFiles/objectExample.dir/D_/Pico_Downloads/pico-sdk/src/rp2_common/pico_printf/printf.c.obj
                0x10002fd4                vfctprintf
 .text          0x10002ff4       0x10 CMakeFiles/objectExample.dir/D_/Pico_Downloads/pico-sdk/src/rp2_common/pico_bit_ops/bit_ops_aeabi.S.obj
 .text.rom_func_lookup
                0x10003004       0x10 CMakeFiles/objectExample.dir/D_/Pico_Downloads/pico-sdk/src/rp2_common/pico_bootrom/bootrom.c.obj
                0x10003004                rom_func_lookup
 .text.rom_data_lookup
                0x10003014       0x10 CMakeFiles/objectExample.dir/D_/Pico_Downloads/pico-sdk/src/rp2_common/pico_bootrom/bootrom.c.obj
                0x10003014                rom_data_lookup
 .text.rom_funcs_lookup
                0x10003024       0x36 CMakeFiles/objectExample.dir/D_/Pico_Downloads/pico-sdk/src/rp2_common/pico_bootrom/bootrom.c.obj
                0x10003024                rom_funcs_lookup
 *fill*         0x1000305a        0x2 
 .text.__wrap___aeabi_idiv
                0x1000305c       0x58 CMakeFiles/objectExample.dir/D_/Pico_Downloads/pico-sdk/src/rp2_common/pico_divider/divider.S.obj
                0x1000305c                __wrap___aeabi_idivmod
                0x1000305c                divmod_s32s32
                0x1000305c                div_s32s32
                0x1000305c                __wrap___aeabi_idiv
                0x10003064                divmod_s32s32_unsafe
                0x10003090                divmod_s32s32_savestate
 .text.__wrap___aeabi_uidiv
                0x100030b4       0x54 CMakeFiles/objectExample.dir/D_/Pico_Downloads/pico-sdk/src/rp2_common/pico_divider/divider.S.obj
                0x100030b4                __wrap___aeabi_uidiv
                0x100030b4                __wrap___aeabi_uidivmod
                0x100030b4                div_u32u32
                0x100030b4                divmod_u32u32
                0x100030bc                divmod_u32u32_unsafe
                0x100030e4                divmod_u32u32_savestate
 .text.__wrap___aeabi_ldiv
                0x10003108      0x430 CMakeFiles/objectExample.dir/D_/Pico_Downloads/pico-sdk/src/rp2_common/pico_divider/divider.S.obj
                0x10003108                div_s64s64
                0x10003108                divmod_s64s64
                0x10003108                __wrap___aeabi_ldivmod
                0x10003140                divmod_u64u64
                0x10003140                div_u64u64
                0x10003140                __wrap___aeabi_uldivmod
                0x10003150                divmod_u64u64_savestate
                0x10003178                divmod_s64s64_unsafe
                0x10003200                divmod_u64u64_unsafe
 .text.__wrap___aeabi_darithmetic
                0x10003538       0x54 CMakeFiles/objectExample.dir/D_/Pico_Downloads/pico-sdk/src/rp2_common/pico_double/double_aeabi.S.obj
                0x10003538                __wrap___aeabi_drsub
                0x1000353e                __wrap___aeabi_dsub
                0x10003550                __wrap___aeabi_dadd
                0x10003562                __wrap___aeabi_ddiv
                0x10003574                __wrap___aeabi_dmul
 .text.__wrap___aeabi_cdcmple
                0x1000358c       0x6c CMakeFiles/objectExample.dir/D_/Pico_Downloads/pico-sdk/src/rp2_common/pico_double/double_aeabi.S.obj
                0x1000358c                __wrap___aeabi_cdrcmple
                0x1000359c                __wrap___aeabi_cdcmpeq
                0x1000359c                __wrap___aeabi_cdcmple
 .text.__wrap___aeabi_dcmplt
                0x100035f8        0xc CMakeFiles/objectExample.dir/D_/Pico_Downloads/pico-sdk/src/rp2_common/pico_double/double_aeabi.S.obj
                0x100035f8                __wrap___aeabi_dcmplt
 .text.__wrap___aeabi_dcmple
                0x10003604       0x10 CMakeFiles/objectExample.dir/D_/Pico_Downloads/pico-sdk/src/rp2_common/pico_double/double_aeabi.S.obj
                0x10003604                __wrap___aeabi_dcmple
 .text.__wrap___aeabi_dcmpge
                0x10003614       0x10 CMakeFiles/objectExample.dir/D_/Pico_Downloads/pico-sdk/src/rp2_common/pico_double/double_aeabi.S.obj
                0x10003614                __wrap___aeabi_dcmpge
 .text.__wrap___aeabi_dcmpgt
                0x10003624        0xa CMakeFiles/objectExample.dir/D_/Pico_Downloads/pico-sdk/src/rp2_common/pico_double/double_aeabi.S.obj
                0x10003624                __wrap___aeabi_dcmpgt
 .text.__wrap___aeabi_dcmpun
                0x1000362e       0x1c CMakeFiles/objectExample.dir/D_/Pico_Downloads/pico-sdk/src/rp2_common/pico_double/double_aeabi.S.obj
                0x1000362e                __wrap___aeabi_dcmpun
 *fill*         0x1000364a        0x2 
 .text.__wrap___aeabi_i2d
                0x1000364c       0x38 CMakeFiles/objectExample.dir/D_/Pico_Downloads/pico-sdk/src/rp2_common/pico_double/double_aeabi.S.obj
                0x1000364c                __wrap___aeabi_ui2d
                0x10003654                __wrap___aeabi_i2d
 .text.__wrap___aeabi_d2iz
                0x10003684       0x48 CMakeFiles/objectExample.dir/D_/Pico_Downloads/pico-sdk/src/rp2_common/pico_double/double_aeabi.S.obj
                0x10003684                double2int_z
                0x10003684                __wrap___aeabi_d2iz
 .text.__wrap___aeabi_d2uiz
                0x100036cc       0x18 CMakeFiles/objectExample.dir/D_/Pico_Downloads/pico-sdk/src/rp2_common/pico_double/double_aeabi.S.obj
                0x100036cc                __wrap___aeabi_d2uiz
                0x100036cc                double2uint
 .text.__aeabi_double_init
                0x100036e4       0xb8 CMakeFiles/objectExample.dir/D_/Pico_Downloads/pico-sdk/src/rp2_common/pico_double/double_init_rom.c.obj
                0x100036e4                __aeabi_double_init
 .text.double_table_shim_on_use_helper
                0x1000379c       0x34 CMakeFiles/objectExample.dir/D_/Pico_Downloads/pico-sdk/src/rp2_common/pico_double/double_v1_rom_shim.S.obj
                0x1000379c                double_table_shim_on_use_helper
 .text.__wrap___aeabi_dsub
                0x100037d0       0x10 CMakeFiles/objectExample.dir/D_/Pico_Downloads/pico-sdk/src/rp2_common/pico_double/double_v1_rom_shim.S.obj
                0x100037d0                drsub_shim
                0x100037d6                dsub_shim
 .text.dadd_shim
                0x100037e0      0x15c CMakeFiles/objectExample.dir/D_/Pico_Downloads/pico-sdk/src/rp2_common/pico_double/double_v1_rom_shim.S.obj
                0x100037e0                dadd_shim
 .text.dmul_shim
                0x1000393c      0x15c CMakeFiles/objectExample.dir/D_/Pico_Downloads/pico-sdk/src/rp2_common/pico_double/double_v1_rom_shim.S.obj
                0x1000393c                dmul_shim
 .text.ddiv_shim
                0x10003a98      0x1b0 CMakeFiles/objectExample.dir/D_/Pico_Downloads/pico-sdk/src/rp2_common/pico_double/double_v1_rom_shim.S.obj
                0x10003a98                ddiv_shim
 .text.dcordic_rot_step
                0x10003c48       0x7c CMakeFiles/objectExample.dir/D_/Pico_Downloads/pico-sdk/src/rp2_common/pico_double/double_v1_rom_shim.S.obj
                0x10003c48                dcordic_rot_step
 .text.double2uint_shim
                0x10003cc4        0xe CMakeFiles/objectExample.dir/D_/Pico_Downloads/pico-sdk/src/rp2_common/pico_double/double_v1_rom_shim.S.obj
                0x10003cc4                double2uint_shim
                0x10003cc6                double2ufix_shim
 *fill*         0x10003cd2        0x2 
 .text.double2uint64_shim
                0x10003cd4       0x6c CMakeFiles/objectExample.dir/D_/Pico_Downloads/pico-sdk/src/rp2_common/pico_double/double_v1_rom_shim.S.obj
                0x10003cd4                double2uint64_shim
                0x10003cd6                double2ufix64_shim
                0x10003cf0                d2fix_a
 .text.dunpacks
                0x10003d40       0x3c CMakeFiles/objectExample.dir/D_/Pico_Downloads/pico-sdk/src/rp2_common/pico_double/double_v1_rom_shim.S.obj
                0x10003d40                dunpacks
 .text.__aeabi_lmul
                0x10003d7c       0x32 CMakeFiles/objectExample.dir/D_/Pico_Downloads/pico-sdk/src/rp2_common/pico_int64_ops/pico_int64_ops_aeabi.S.obj
                0x10003d7c                __wrap___aeabi_lmul
 *fill*         0x10003dae        0x2 
 .text.__aeabi_float_init
                0x10003db0       0xfc CMakeFiles/objectExample.dir/D_/Pico_Downloads/pico-sdk/src/rp2_common/pico_float/float_init_rom.c.obj
                0x10003db0                __aeabi_float_init
 .text.float_table_shim_on_use_helper
                0x10003eac       0x34 CMakeFiles/objectExample.dir/D_/Pico_Downloads/pico-sdk/src/rp2_common/pico_float/float_v1_rom_shim.S.obj
                0x10003eac                float_table_shim_on_use_helper
 .text.__wrap_malloc
                0x10003ee0        0x8 CMakeFiles/objectExample.dir/D_/Pico_Downloads/pico-sdk/src/rp2_common/pico_malloc/pico_malloc.c.obj
                0x10003ee0                __wrap_malloc
 .text.__wrap_calloc
                0x10003ee8        0x8 CMakeFiles/objectExample.dir/D_/Pico_Downloads/pico-sdk/src/rp2_common/pico_malloc/pico_malloc.c.obj
                0x10003ee8                __wrap_calloc
 .text          0x10003ef0       0x10 CMakeFiles/objectExample.dir/D_/Pico_Downloads/pico-sdk/src/rp2_common/pico_mem_ops/mem_ops_aeabi.S.obj
                0x10003ef0                __aeabi_mem_init
 .text.memset   0x10003f00        0xc CMakeFiles/objectExample.dir/D_/Pico_Downloads/pico-sdk/src/rp2_common/pico_mem_ops/mem_ops_aeabi.S.obj
                0x10003f00                __wrap_memset
 .text.memcpy   0x10003f0c        0xc CMakeFiles/objectExample.dir/D_/Pico_Downloads/pico-sdk/src/rp2_common/pico_mem_ops/mem_ops_aeabi.S.obj
                0x10003f0c                __wrap_memcpy
                0x10003f0c                __wrap___aeabi_memcpy
 .text.stdio_out_chars_crlf
                0x10003f18       0x80 CMakeFiles/objectExample.dir/D_/Pico_Downloads/pico-sdk/src/rp2_common/pico_stdio/stdio.c.obj
 .text.stdio_stack_buffer_flush
                0x10003f98       0x44 CMakeFiles/objectExample.dir/D_/Pico_Downloads/pico-sdk/src/rp2_common/pico_stdio/stdio.c.obj
 .text.stdio_buffered_printer
                0x10003fdc       0x20 CMakeFiles/objectExample.dir/D_/Pico_Downloads/pico-sdk/src/rp2_common/pico_stdio/stdio.c.obj
 .text.stdout_serialize_begin
                0x10003ffc       0x2c CMakeFiles/objectExample.dir/D_/Pico_Downloads/pico-sdk/src/rp2_common/pico_stdio/stdio.c.obj
                0x10003ffc                stdout_serialize_begin
 .text.stdout_serialize_end
                0x10004028       0x10 CMakeFiles/objectExample.dir/D_/Pico_Downloads/pico-sdk/src/rp2_common/pico_stdio/stdio.c.obj
                0x10004028                stdout_serialize_end
 .text.stdio_put_string
                0x10004038       0x84 CMakeFiles/objectExample.dir/D_/Pico_Downloads/pico-sdk/src/rp2_common/pico_stdio/stdio.c.obj
 .text.stdio_set_driver_enabled
                0x100040bc       0x38 CMakeFiles/objectExample.dir/D_/Pico_Downloads/pico-sdk/src/rp2_common/pico_stdio/stdio.c.obj
                0x100040bc                stdio_set_driver_enabled
 .text.stdio_flush
                0x100040f4       0x20 CMakeFiles/objectExample.dir/D_/Pico_Downloads/pico-sdk/src/rp2_common/pico_stdio/stdio.c.obj
                0x100040f4                stdio_flush
 .text.__wrap_puts
                0x10004114       0x1c CMakeFiles/objectExample.dir/D_/Pico_Downloads/pico-sdk/src/rp2_common/pico_stdio/stdio.c.obj
                0x10004114                __wrap_puts
 .text.__wrap_vprintf
                0x10004130       0x44 CMakeFiles/objectExample.dir/D_/Pico_Downloads/pico-sdk/src/rp2_common/pico_stdio/stdio.c.obj
                0x10004130                __wrap_vprintf
 .text.__wrap_printf
                0x10004174       0x18 CMakeFiles/objectExample.dir/D_/Pico_Downloads/pico-sdk/src/rp2_common/pico_stdio/stdio.c.obj
                0x10004174                __wrap_printf
 .text.stdio_init_all
                0x1000418c        0x8 CMakeFiles/objectExample.dir/D_/Pico_Downloads/pico-sdk/src/rp2_common/pico_stdio/stdio.c.obj
                0x1000418c                stdio_init_all
 .text.stdio_usb_in_chars
                0x10004194       0x70 CMakeFiles/objectExample.dir/D_/Pico_Downloads/pico-sdk/src/rp2_common/pico_stdio_usb/stdio_usb.c.obj
                0x10004194                stdio_usb_in_chars
 .text.low_priority_worker_irq
                0x10004204       0x20 CMakeFiles/objectExample.dir/D_/Pico_Downloads/pico-sdk/src/rp2_common/pico_stdio_usb/stdio_usb.c.obj
 .text.stdio_usb_out_chars
                0x10004224       0xd4 CMakeFiles/objectExample.dir/D_/Pico_Downloads/pico-sdk/src/rp2_common/pico_stdio_usb/stdio_usb.c.obj
 .text.timer_task
                0x100042f8       0x10 CMakeFiles/objectExample.dir/D_/Pico_Downloads/pico-sdk/src/rp2_common/pico_stdio_usb/stdio_usb.c.obj
 .text.stdio_usb_init
                0x10004308       0x90 CMakeFiles/objectExample.dir/D_/Pico_Downloads/pico-sdk/src/rp2_common/pico_stdio_usb/stdio_usb.c.obj
                0x10004308                stdio_usb_init
 .text.tud_descriptor_device_cb
                0x10004398        0x8 CMakeFiles/objectExample.dir/D_/Pico_Downloads/pico-sdk/src/rp2_common/pico_stdio_usb/stdio_usb_descriptors.c.obj
                0x10004398                tud_descriptor_device_cb
 .text.tud_descriptor_configuration_cb
                0x100043a0        0x8 CMakeFiles/objectExample.dir/D_/Pico_Downloads/pico-sdk/src/rp2_common/pico_stdio_usb/stdio_usb_descriptors.c.obj
                0x100043a0                tud_descriptor_configuration_cb
 .text.tud_descriptor_string_cb
                0x100043a8       0x50 CMakeFiles/objectExample.dir/D_/Pico_Downloads/pico-sdk/src/rp2_common/pico_stdio_usb/stdio_usb_descriptors.c.obj
                0x100043a8                tud_descriptor_string_cb
 .text.hw_endpoint_get_by_addr
                0x100043f8       0x1c CMakeFiles/objectExample.dir/D_/Pico_Downloads/pico-sdk/lib/tinyusb/src/portable/raspberrypi/rp2040/dcd_rp2040.c.obj
 .text.reset_ep0
                0x10004414       0x2c CMakeFiles/objectExample.dir/D_/Pico_Downloads/pico-sdk/lib/tinyusb/src/portable/raspberrypi/rp2040/dcd_rp2040.c.obj
 .text._hw_endpoint_alloc
                0x10004440       0x7c CMakeFiles/objectExample.dir/D_/Pico_Downloads/pico-sdk/lib/tinyusb/src/portable/raspberrypi/rp2040/dcd_rp2040.c.obj
 .text._hw_endpoint_init
                0x100044bc       0xbc CMakeFiles/objectExample.dir/D_/Pico_Downloads/pico-sdk/lib/tinyusb/src/portable/raspberrypi/rp2040/dcd_rp2040.c.obj
 .text.hw_endpoint_init
                0x10004578       0x18 CMakeFiles/objectExample.dir/D_/Pico_Downloads/pico-sdk/lib/tinyusb/src/portable/raspberrypi/rp2040/dcd_rp2040.c.obj
 .text.hw_handle_buff_status
                0x10004590       0xb8 CMakeFiles/objectExample.dir/D_/Pico_Downloads/pico-sdk/lib/tinyusb/src/portable/raspberrypi/rp2040/dcd_rp2040.c.obj
 .text.dcd_rp2040_irq
                0x10004648       0x8c CMakeFiles/objectExample.dir/D_/Pico_Downloads/pico-sdk/lib/tinyusb/src/portable/raspberrypi/rp2040/dcd_rp2040.c.obj
 .text.hw_endpoint_xfer
                0x100046d4       0x18 CMakeFiles/objectExample.dir/D_/Pico_Downloads/pico-sdk/lib/tinyusb/src/portable/raspberrypi/rp2040/dcd_rp2040.c.obj
 .text.ep0_0len_status
                0x100046ec       0x14 CMakeFiles/objectExample.dir/D_/Pico_Downloads/pico-sdk/lib/tinyusb/src/portable/raspberrypi/rp2040/dcd_rp2040.c.obj
 .text._hw_endpoint_stall
                0x10004700       0x54 CMakeFiles/objectExample.dir/D_/Pico_Downloads/pico-sdk/lib/tinyusb/src/portable/raspberrypi/rp2040/dcd_rp2040.c.obj
 .text.hw_endpoint_stall
                0x10004754        0xc CMakeFiles/objectExample.dir/D_/Pico_Downloads/pico-sdk/lib/tinyusb/src/portable/raspberrypi/rp2040/dcd_rp2040.c.obj
 .text._hw_endpoint_clear_stall
                0x10004760       0x34 CMakeFiles/objectExample.dir/D_/Pico_Downloads/pico-sdk/lib/tinyusb/src/portable/raspberrypi/rp2040/dcd_rp2040.c.obj
 .text.hw_endpoint_clear_stall
                0x10004794        0xc CMakeFiles/objectExample.dir/D_/Pico_Downloads/pico-sdk/lib/tinyusb/src/portable/raspberrypi/rp2040/dcd_rp2040.c.obj
 .text.dcd_int_enable
                0x100047a0       0x2c CMakeFiles/objectExample.dir/D_/Pico_Downloads/pico-sdk/lib/tinyusb/src/portable/raspberrypi/rp2040/dcd_rp2040.c.obj
                0x100047a0                dcd_int_enable
 .text.dcd_set_address
                0x100047cc       0x30 CMakeFiles/objectExample.dir/D_/Pico_Downloads/pico-sdk/lib/tinyusb/src/portable/raspberrypi/rp2040/dcd_rp2040.c.obj
                0x100047cc                dcd_set_address
 .text.dcd_connect
                0x100047fc       0x30 CMakeFiles/objectExample.dir/D_/Pico_Downloads/pico-sdk/lib/tinyusb/src/portable/raspberrypi/rp2040/dcd_rp2040.c.obj
                0x100047fc                dcd_connect
 .text.dcd_init
                0x1000482c       0x90 CMakeFiles/objectExample.dir/D_/Pico_Downloads/pico-sdk/lib/tinyusb/src/portable/raspberrypi/rp2040/dcd_rp2040.c.obj
                0x1000482c                dcd_init
 .text.dcd_edpt0_status_complete
                0x100048bc       0x44 CMakeFiles/objectExample.dir/D_/Pico_Downloads/pico-sdk/lib/tinyusb/src/portable/raspberrypi/rp2040/dcd_rp2040.c.obj
                0x100048bc                dcd_edpt0_status_complete
 .text.dcd_edpt_open
                0x10004900       0x40 CMakeFiles/objectExample.dir/D_/Pico_Downloads/pico-sdk/lib/tinyusb/src/portable/raspberrypi/rp2040/dcd_rp2040.c.obj
                0x10004900                dcd_edpt_open
 .text.dcd_edpt_xfer
                0x10004940       0x34 CMakeFiles/objectExample.dir/D_/Pico_Downloads/pico-sdk/lib/tinyusb/src/portable/raspberrypi/rp2040/dcd_rp2040.c.obj
                0x10004940                dcd_edpt_xfer
 .text.dcd_edpt_stall
                0x10004974       0x28 CMakeFiles/objectExample.dir/D_/Pico_Downloads/pico-sdk/lib/tinyusb/src/portable/raspberrypi/rp2040/dcd_rp2040.c.obj
                0x10004974                dcd_edpt_stall
 .text.dcd_edpt_clear_stall
                0x1000499c       0x28 CMakeFiles/objectExample.dir/D_/Pico_Downloads/pico-sdk/lib/tinyusb/src/portable/raspberrypi/rp2040/dcd_rp2040.c.obj
                0x1000499c                dcd_edpt_clear_stall
 .text.rp2040_usb_init
                0x100049c4       0x50 CMakeFiles/objectExample.dir/D_/Pico_Downloads/pico-sdk/lib/tinyusb/src/portable/raspberrypi/rp2040/rp2040_usb.c.obj
                0x100049c4                rp2040_usb_init
 .text.hw_endpoint_reset_transfer
                0x10004a14       0x14 CMakeFiles/objectExample.dir/D_/Pico_Downloads/pico-sdk/lib/tinyusb/src/portable/raspberrypi/rp2040/rp2040_usb.c.obj
                0x10004a14                hw_endpoint_reset_transfer
 .text._hw_endpoint_buffer_control_update32
                0x10004a28       0x54 CMakeFiles/objectExample.dir/D_/Pico_Downloads/pico-sdk/lib/tinyusb/src/portable/raspberrypi/rp2040/rp2040_usb.c.obj
                0x10004a28                _hw_endpoint_buffer_control_update32
 .text._hw_endpoint_start_next_buffer
                0x10004a7c       0x5a CMakeFiles/objectExample.dir/D_/Pico_Downloads/pico-sdk/lib/tinyusb/src/portable/raspberrypi/rp2040/rp2040_usb.c.obj
                0x10004a7c                _hw_endpoint_start_next_buffer
 .text._hw_endpoint_xfer_start
                0x10004ad6       0x46 CMakeFiles/objectExample.dir/D_/Pico_Downloads/pico-sdk/lib/tinyusb/src/portable/raspberrypi/rp2040/rp2040_usb.c.obj
                0x10004ad6                _hw_endpoint_xfer_start
 .text._hw_endpoint_xfer_sync
                0x10004b1c       0x74 CMakeFiles/objectExample.dir/D_/Pico_Downloads/pico-sdk/lib/tinyusb/src/portable/raspberrypi/rp2040/rp2040_usb.c.obj
                0x10004b1c                _hw_endpoint_xfer_sync
 .text._hw_endpoint_xfer_continue
                0x10004b90       0x58 CMakeFiles/objectExample.dir/D_/Pico_Downloads/pico-sdk/lib/tinyusb/src/portable/raspberrypi/rp2040/rp2040_usb.c.obj
                0x10004b90                _hw_endpoint_xfer_continue
 .text._hw_endpoint_xfer
                0x10004be8       0x34 CMakeFiles/objectExample.dir/D_/Pico_Downloads/pico-sdk/lib/tinyusb/src/portable/raspberrypi/rp2040/rp2040_usb.c.obj
                0x10004be8                _hw_endpoint_xfer
 .text.mark_interface_endpoint
                0x10004c1c       0x2a CMakeFiles/objectExample.dir/D_/Pico_Downloads/pico-sdk/lib/tinyusb/src/device/usbd.c.obj
 *fill*         0x10004c46        0x2 
 .text.usbd_reset
                0x10004c48       0x88 CMakeFiles/objectExample.dir/D_/Pico_Downloads/pico-sdk/lib/tinyusb/src/device/usbd.c.obj
 .text.invoke_class_control
                0x10004cd0       0x18 CMakeFiles/objectExample.dir/D_/Pico_Downloads/pico-sdk/lib/tinyusb/src/device/usbd.c.obj
 .text.process_set_config
                0x10004ce8      0x1d0 CMakeFiles/objectExample.dir/D_/Pico_Downloads/pico-sdk/lib/tinyusb/src/device/usbd.c.obj
 .text.process_get_descriptor
                0x10004eb8       0xf4 CMakeFiles/objectExample.dir/D_/Pico_Downloads/pico-sdk/lib/tinyusb/src/device/usbd.c.obj
 .text.tud_mounted
                0x10004fac       0x10 CMakeFiles/objectExample.dir/D_/Pico_Downloads/pico-sdk/lib/tinyusb/src/device/usbd.c.obj
                0x10004fac                tud_mounted
 .text.tud_suspended
                0x10004fbc       0x10 CMakeFiles/objectExample.dir/D_/Pico_Downloads/pico-sdk/lib/tinyusb/src/device/usbd.c.obj
                0x10004fbc                tud_suspended
 .text.tud_init
                0x10004fcc       0xb8 CMakeFiles/objectExample.dir/D_/Pico_Downloads/pico-sdk/lib/tinyusb/src/device/usbd.c.obj
                0x10004fcc                tud_init
 .text.dcd_event_handler
                0x10005084      0x1c4 CMakeFiles/objectExample.dir/D_/Pico_Downloads/pico-sdk/lib/tinyusb/src/device/usbd.c.obj
                0x10005084                dcd_event_handler
 .text.dcd_event_bus_signal
                0x10005248       0x26 CMakeFiles/objectExample.dir/D_/Pico_Downloads/pico-sdk/lib/tinyusb/src/device/usbd.c.obj
                0x10005248                dcd_event_bus_signal
 .text.dcd_event_setup_received
                0x1000526e       0x34 CMakeFiles/objectExample.dir/D_/Pico_Downloads/pico-sdk/lib/tinyusb/src/device/usbd.c.obj
                0x1000526e                dcd_event_setup_received
 .text.dcd_event_xfer_complete
                0x100052a2       0x44 CMakeFiles/objectExample.dir/D_/Pico_Downloads/pico-sdk/lib/tinyusb/src/device/usbd.c.obj
                0x100052a2                dcd_event_xfer_complete
 .text.usbd_edpt_open
                0x100052e6        0x8 CMakeFiles/objectExample.dir/D_/Pico_Downloads/pico-sdk/lib/tinyusb/src/device/usbd.c.obj
                0x100052e6                usbd_edpt_open
 *fill*         0x100052ee        0x2 
 .text.usbd_open_edpt_pair
                0x100052f0       0x8c CMakeFiles/objectExample.dir/D_/Pico_Downloads/pico-sdk/lib/tinyusb/src/device/usbd.c.obj
                0x100052f0                usbd_open_edpt_pair
 .text.usbd_edpt_claim
                0x1000537c       0x8c CMakeFiles/objectExample.dir/D_/Pico_Downloads/pico-sdk/lib/tinyusb/src/device/usbd.c.obj
                0x1000537c                usbd_edpt_claim
 .text.usbd_edpt_release
                0x10005408       0x68 CMakeFiles/objectExample.dir/D_/Pico_Downloads/pico-sdk/lib/tinyusb/src/device/usbd.c.obj
                0x10005408                usbd_edpt_release
 .text.usbd_edpt_xfer
                0x10005470       0x80 CMakeFiles/objectExample.dir/D_/Pico_Downloads/pico-sdk/lib/tinyusb/src/device/usbd.c.obj
                0x10005470                usbd_edpt_xfer
 .text.usbd_edpt_stall
                0x100054f0       0x2c CMakeFiles/objectExample.dir/D_/Pico_Downloads/pico-sdk/lib/tinyusb/src/device/usbd.c.obj
                0x100054f0                usbd_edpt_stall
 .text.usbd_edpt_clear_stall
                0x1000551c       0x2c CMakeFiles/objectExample.dir/D_/Pico_Downloads/pico-sdk/lib/tinyusb/src/device/usbd.c.obj
                0x1000551c                usbd_edpt_clear_stall
 .text.usbd_edpt_stalled
                0x10005548       0x1c CMakeFiles/objectExample.dir/D_/Pico_Downloads/pico-sdk/lib/tinyusb/src/device/usbd.c.obj
                0x10005548                usbd_edpt_stalled
 .text.process_control_request
                0x10005564      0x37c CMakeFiles/objectExample.dir/D_/Pico_Downloads/pico-sdk/lib/tinyusb/src/device/usbd.c.obj
 .text.tud_task
                0x100058e0      0x204 CMakeFiles/objectExample.dir/D_/Pico_Downloads/pico-sdk/lib/tinyusb/src/device/usbd.c.obj
                0x100058e0                tud_task
 .text._data_stage_xact
                0x10005ae4       0x58 CMakeFiles/objectExample.dir/D_/Pico_Downloads/pico-sdk/lib/tinyusb/src/device/usbd_control.c.obj
 .text.tud_control_status
                0x10005b3c       0x38 CMakeFiles/objectExample.dir/D_/Pico_Downloads/pico-sdk/lib/tinyusb/src/device/usbd_control.c.obj
                0x10005b3c                tud_control_status
 .text.tud_control_xfer
                0x10005b74       0xa8 CMakeFiles/objectExample.dir/D_/Pico_Downloads/pico-sdk/lib/tinyusb/src/device/usbd_control.c.obj
                0x10005b74                tud_control_xfer
 .text.usbd_control_reset
                0x10005c1c       0x14 CMakeFiles/objectExample.dir/D_/Pico_Downloads/pico-sdk/lib/tinyusb/src/device/usbd_control.c.obj
                0x10005c1c                usbd_control_reset
 .text.usbd_control_set_complete_callback
                0x10005c30        0xc CMakeFiles/objectExample.dir/D_/Pico_Downloads/pico-sdk/lib/tinyusb/src/device/usbd_control.c.obj
                0x10005c30                usbd_control_set_complete_callback
 .text.usbd_control_set_request
                0x10005c3c       0x1c CMakeFiles/objectExample.dir/D_/Pico_Downloads/pico-sdk/lib/tinyusb/src/device/usbd_control.c.obj
                0x10005c3c                usbd_control_set_request
 .text.usbd_control_xfer_cb
                0x10005c58       0xe8 CMakeFiles/objectExample.dir/D_/Pico_Downloads/pico-sdk/lib/tinyusb/src/device/usbd_control.c.obj
                0x10005c58                usbd_control_xfer_cb
 .text._prep_out_transaction
                0x10005d40       0x46 CMakeFiles/objectExample.dir/D_/Pico_Downloads/pico-sdk/lib/tinyusb/src/class/cdc/cdc_device.c.obj
 *fill*         0x10005d86        0x2 
 .text.tud_cdc_n_connected
                0x10005d88       0x48 CMakeFiles/objectExample.dir/D_/Pico_Downloads/pico-sdk/lib/tinyusb/src/class/cdc/cdc_device.c.obj
                0x10005d88                tud_cdc_n_connected
 .text.tud_cdc_n_available
                0x10005dd0       0x20 CMakeFiles/objectExample.dir/D_/Pico_Downloads/pico-sdk/lib/tinyusb/src/class/cdc/cdc_device.c.obj
                0x10005dd0                tud_cdc_n_available
 .text.tud_cdc_n_read
                0x10005df0       0x30 CMakeFiles/objectExample.dir/D_/Pico_Downloads/pico-sdk/lib/tinyusb/src/class/cdc/cdc_device.c.obj
                0x10005df0                tud_cdc_n_read
 .text.tud_cdc_n_write_flush
                0x10005e20       0xc4 CMakeFiles/objectExample.dir/D_/Pico_Downloads/pico-sdk/lib/tinyusb/src/class/cdc/cdc_device.c.obj
                0x10005e20                tud_cdc_n_write_flush
 .text.tud_cdc_n_write
                0x10005ee4       0x38 CMakeFiles/objectExample.dir/D_/Pico_Downloads/pico-sdk/lib/tinyusb/src/class/cdc/cdc_device.c.obj
                0x10005ee4                tud_cdc_n_write
 .text.tud_cdc_n_write_available
                0x10005f1c       0x20 CMakeFiles/objectExample.dir/D_/Pico_Downloads/pico-sdk/lib/tinyusb/src/class/cdc/cdc_device.c.obj
                0x10005f1c                tud_cdc_n_write_available
 .text.cdcd_init
                0x10005f3c       0xdc CMakeFiles/objectExample.dir/D_/Pico_Downloads/pico-sdk/lib/tinyusb/src/class/cdc/cdc_device.c.obj
                0x10005f3c                cdcd_init
 .text.cdcd_reset
                0x10006018       0x44 CMakeFiles/objectExample.dir/D_/Pico_Downloads/pico-sdk/lib/tinyusb/src/class/cdc/cdc_device.c.obj
                0x10006018                cdcd_reset
 .text.cdcd_open
                0x1000605c      0x118 CMakeFiles/objectExample.dir/D_/Pico_Downloads/pico-sdk/lib/tinyusb/src/class/cdc/cdc_device.c.obj
                0x1000605c                cdcd_open
 .text.cdcd_control_complete
                0x10006174       0x60 CMakeFiles/objectExample.dir/D_/Pico_Downloads/pico-sdk/lib/tinyusb/src/class/cdc/cdc_device.c.obj
                0x10006174                cdcd_control_complete
 .text.cdcd_control_request
                0x100061d4       0x9c CMakeFiles/objectExample.dir/D_/Pico_Downloads/pico-sdk/lib/tinyusb/src/class/cdc/cdc_device.c.obj
                0x100061d4                cdcd_control_request
 .text.cdcd_xfer_cb
                0x10006270      0x130 CMakeFiles/objectExample.dir/D_/Pico_Downloads/pico-sdk/lib/tinyusb/src/class/cdc/cdc_device.c.obj
                0x10006270                cdcd_xfer_cb
 .text.tusb_init
                0x100063a0       0x38 CMakeFiles/objectExample.dir/D_/Pico_Downloads/pico-sdk/lib/tinyusb/src/tusb.c.obj
                0x100063a0                tusb_init
 .text.tusb_inited
                0x100063d8        0xc CMakeFiles/objectExample.dir/D_/Pico_Downloads/pico-sdk/lib/tinyusb/src/tusb.c.obj
                0x100063d8                tusb_inited
 .text.advance_pointer
                0x100063e4       0x1e CMakeFiles/objectExample.dir/D_/Pico_Downloads/pico-sdk/lib/tinyusb/src/common/tusb_fifo.c.obj
 .text.backward_pointer
                0x10006402       0x1a CMakeFiles/objectExample.dir/D_/Pico_Downloads/pico-sdk/lib/tinyusb/src/common/tusb_fifo.c.obj
 .text.get_relative_pointer
                0x1000641c       0x16 CMakeFiles/objectExample.dir/D_/Pico_Downloads/pico-sdk/lib/tinyusb/src/common/tusb_fifo.c.obj
 .text.tu_fifo_lock
                0x10006432       0x12 CMakeFiles/objectExample.dir/D_/Pico_Downloads/pico-sdk/lib/tinyusb/src/common/tusb_fifo.c.obj
 .text.tu_fifo_unlock
                0x10006444        0xe CMakeFiles/objectExample.dir/D_/Pico_Downloads/pico-sdk/lib/tinyusb/src/common/tusb_fifo.c.obj
 .text._tu_fifo_peek_at
                0x10006452       0x66 CMakeFiles/objectExample.dir/D_/Pico_Downloads/pico-sdk/lib/tinyusb/src/common/tusb_fifo.c.obj
 .text._ff_pull_n
                0x100064b8       0x4a CMakeFiles/objectExample.dir/D_/Pico_Downloads/pico-sdk/lib/tinyusb/src/common/tusb_fifo.c.obj
 .text._tu_fifo_peek_at_n
                0x10006502       0x72 CMakeFiles/objectExample.dir/D_/Pico_Downloads/pico-sdk/lib/tinyusb/src/common/tusb_fifo.c.obj
 .text._ff_push_n
                0x10006574       0x4a CMakeFiles/objectExample.dir/D_/Pico_Downloads/pico-sdk/lib/tinyusb/src/common/tusb_fifo.c.obj
 .text.tu_fifo_config
                0x100065be       0x48 CMakeFiles/objectExample.dir/D_/Pico_Downloads/pico-sdk/lib/tinyusb/src/common/tusb_fifo.c.obj
                0x100065be                tu_fifo_config
 .text.tu_fifo_count
                0x10006606       0x1c CMakeFiles/objectExample.dir/D_/Pico_Downloads/pico-sdk/lib/tinyusb/src/common/tusb_fifo.c.obj
                0x10006606                tu_fifo_count
 .text.tu_fifo_remaining
                0x10006622       0x20 CMakeFiles/objectExample.dir/D_/Pico_Downloads/pico-sdk/lib/tinyusb/src/common/tusb_fifo.c.obj
                0x10006622                tu_fifo_remaining
 .text.tu_fifo_read
                0x10006642       0x3a CMakeFiles/objectExample.dir/D_/Pico_Downloads/pico-sdk/lib/tinyusb/src/common/tusb_fifo.c.obj
                0x10006642                tu_fifo_read
 .text.tu_fifo_read_n
                0x1000667c       0x3e CMakeFiles/objectExample.dir/D_/Pico_Downloads/pico-sdk/lib/tinyusb/src/common/tusb_fifo.c.obj
                0x1000667c                tu_fifo_read_n
 .text.tu_fifo_write
                0x100066ba       0x5c CMakeFiles/objectExample.dir/D_/Pico_Downloads/pico-sdk/lib/tinyusb/src/common/tusb_fifo.c.obj
                0x100066ba                tu_fifo_write
 .text.tu_fifo_write_n
                0x10006716       0x7c CMakeFiles/objectExample.dir/D_/Pico_Downloads/pico-sdk/lib/tinyusb/src/common/tusb_fifo.c.obj
                0x10006716                tu_fifo_write_n
 .text.tu_fifo_clear
                0x10006792       0x18 CMakeFiles/objectExample.dir/D_/Pico_Downloads/pico-sdk/lib/tinyusb/src/common/tusb_fifo.c.obj
                0x10006792                tu_fifo_clear
 .text._ZN10UltrasonicC2Eii
                0x100067aa       0x14 ..\ultrasonic\libpico_ultrasonic_object.a(ultrasonicObject.cpp.obj)
                0x100067aa                Ultrasonic::Ultrasonic(int, int)
                0x100067aa                Ultrasonic::Ultrasonic(int, int)
 .text._ZN10Ultrasonic5getCMEv
                0x100067be        0xc ..\ultrasonic\libpico_ultrasonic_object.a(ultrasonicObject.cpp.obj)
                0x100067be                Ultrasonic::getCM()
 .text.setupUltrasonicPins
                0x100067ca       0x22 ..\ultrasonic\libpico_ultrasonic_object.a(ultrasonic.c.obj)
                0x100067ca                setupUltrasonicPins
 .text.getPulse
                0x100067ec       0x78 ..\ultrasonic\libpico_ultrasonic_object.a(ultrasonic.c.obj)
                0x100067ec                getPulse
 .text.getCm    0x10006864       0x10 ..\ultrasonic\libpico_ultrasonic_object.a(ultrasonic.c.obj)
                0x10006864                getCm
 .text.calloc   0x10006874       0x18 c:/progra~2/gnuarm~1/102020~1/bin/../lib/gcc/arm-none-eabi/10.2.1/../../../../arm-none-eabi/lib/thumb/v6-m/nofp\libg.a(lib_a-calloc.o)
                0x10006874                calloc
 .text._calloc_r
                0x1000688c       0x5c c:/progra~2/gnuarm~1/102020~1/bin/../lib/gcc/arm-none-eabi/10.2.1/../../../../arm-none-eabi/lib/thumb/v6-m/nofp\libg.a(lib_a-callocr.o)
                0x1000688c                _calloc_r
 .text.malloc   0x100068e8       0x14 c:/progra~2/gnuarm~1/102020~1/bin/../lib/gcc/arm-none-eabi/10.2.1/../../../../arm-none-eabi/lib/thumb/v6-m/nofp\libg.a(lib_a-malloc.o)
                0x100068e8                malloc
 .text._malloc_r
                0x100068fc      0x580 c:/progra~2/gnuarm~1/102020~1/bin/../lib/gcc/arm-none-eabi/10.2.1/../../../../arm-none-eabi/lib/thumb/v6-m/nofp\libg.a(lib_a-mallocr.o)
                0x100068fc                _malloc_r
 .text.__malloc_lock
                0x10006e7c       0x10 c:/progra~2/gnuarm~1/102020~1/bin/../lib/gcc/arm-none-eabi/10.2.1/../../../../arm-none-eabi/lib/thumb/v6-m/nofp\libg.a(lib_a-mlock.o)
                0x10006e7c                __malloc_lock
 .text.__malloc_unlock
                0x10006e8c       0x10 c:/progra~2/gnuarm~1/102020~1/bin/../lib/gcc/arm-none-eabi/10.2.1/../../../../arm-none-eabi/lib/thumb/v6-m/nofp\libg.a(lib_a-mlock.o)
                0x10006e8c                __malloc_unlock
 .text._sbrk_r  0x10006e9c       0x24 c:/progra~2/gnuarm~1/102020~1/bin/../lib/gcc/arm-none-eabi/10.2.1/../../../../arm-none-eabi/lib/thumb/v6-m/nofp\libg.a(lib_a-sbrkr.o)
                0x10006e9c                _sbrk_r
 .text.strlen   0x10006ec0       0x5c c:/progra~2/gnuarm~1/102020~1/bin/../lib/gcc/arm-none-eabi/10.2.1/../../../../arm-none-eabi/lib/thumb/v6-m/nofp\libg.a(lib_a-strlen-stub.o)
                0x10006ec0                strlen
 .text._malloc_trim_r
                0x10006f1c       0x9c c:/progra~2/gnuarm~1/102020~1/bin/../lib/gcc/arm-none-eabi/10.2.1/../../../../arm-none-eabi/lib/thumb/v6-m/nofp\libg.a(lib_a-freer.o)
                0x10006f1c                _malloc_trim_r
 .text._free_r  0x10006fb8      0x1c4 c:/progra~2/gnuarm~1/102020~1/bin/../lib/gcc/arm-none-eabi/10.2.1/../../../../arm-none-eabi/lib/thumb/v6-m/nofp\libg.a(lib_a-freer.o)
                0x10006fb8                _free_r
 .text.__retarget_lock_acquire_recursive
                0x1000717c        0x4 c:/progra~2/gnuarm~1/102020~1/bin/../lib/gcc/arm-none-eabi/10.2.1/../../../../arm-none-eabi/lib/thumb/v6-m/nofp\libg.a(lib_a-lock.o)
                0x1000717c                __retarget_lock_acquire_recursive
 .text.__retarget_lock_release_recursive
                0x10007180        0x4 c:/progra~2/gnuarm~1/102020~1/bin/../lib/gcc/arm-none-eabi/10.2.1/../../../../arm-none-eabi/lib/thumb/v6-m/nofp\libg.a(lib_a-lock.o)
                0x10007180                __retarget_lock_release_recursive
 *(.fini)
 .fini          0x10007184        0x4 c:/progra~2/gnuarm~1/102020~1/bin/../lib/gcc/arm-none-eabi/10.2.1/thumb/v6-m/nofp/crti.o
                0x10007184                _fini
 .fini.__stub   0x10007188       0x60 linker stubs
 *crtbegin.o(.ctors)
 *crtbegin?.o(.ctors)
 *(EXCLUDE_FILE(*crtend.o *crtend?.o) .ctors)
 *(SORT_BY_NAME(.ctors.*))
 *(.ctors)
 *crtbegin.o(.dtors)
 *crtbegin?.o(.dtors)
 *(EXCLUDE_FILE(*crtend.o *crtend?.o) .dtors)
 *(SORT_BY_NAME(.dtors.*))
 *(.dtors)
 *(.eh_frame*)
 .eh_frame      0x100071e8        0x0 c:/progra~2/gnuarm~1/102020~1/bin/../lib/gcc/arm-none-eabi/10.2.1/thumb/v6-m/nofp/crtbegin.o
                0x100071e8                . = ALIGN (0x4)

.glue_7         0x100071e8        0x0
 .glue_7        0x100071e8        0x0 linker stubs

.glue_7t        0x100071e8        0x0
 .glue_7t       0x100071e8        0x0 linker stubs

.vfp11_veneer   0x100071e8        0x0
 .vfp11_veneer  0x100071e8        0x0 linker stubs

.v4_bx          0x100071e8        0x0
 .v4_bx         0x100071e8        0x0 linker stubs

.iplt           0x100071e8        0x0
 .iplt          0x100071e8        0x0 c:/progra~2/gnuarm~1/102020~1/bin/../lib/gcc/arm-none-eabi/10.2.1/thumb/v6-m/nofp/crtbegin.o

.rodata         0x100071e8     0x139c
 *(EXCLUDE_FILE(*libm.a: *libc.a:*lib_a-mem*.o *libgcc.a:) .rodata*)
 .rodata.main.str1.4
                0x100071e8        0x8 CMakeFiles/objectExample.dir/objectExample.cpp.obj
 .rodata.spin_lock_claim_unused.str1.4
                0x100071f0       0x1b CMakeFiles/objectExample.dir/D_/Pico_Downloads/pico-sdk/src/rp2_common/hardware_sync/sync.c.obj
 *fill*         0x1000720b        0x1 
 .rodata.alarm_pool_dump_key.str1.4
                0x1000720c       0x6b CMakeFiles/objectExample.dir/D_/Pico_Downloads/pico-sdk/src/common/pico_time/time.c.obj
 *fill*         0x10007277        0x1 
 .rodata.ph_add_child_node.str1.4
                0x10007278       0x8e CMakeFiles/objectExample.dir/D_/Pico_Downloads/pico-sdk/src/common/pico_time/time.c.obj
 *fill*         0x10007306        0x2 
 .rodata.add_alarm_under_lock.str1.4
                0x10007308       0x27 CMakeFiles/objectExample.dir/D_/Pico_Downloads/pico-sdk/src/common/pico_time/time.c.obj
 *fill*         0x1000732f        0x1 
 .rodata.alarm_pool_alarm_callback.str1.4
                0x10007330       0x7d CMakeFiles/objectExample.dir/D_/Pico_Downloads/pico-sdk/src/common/pico_time/time.c.obj
 *fill*         0x100073ad        0x3 
 .rodata.alarm_pool_get_default.str1.4
                0x100073b0       0x13 CMakeFiles/objectExample.dir/D_/Pico_Downloads/pico-sdk/src/common/pico_time/time.c.obj
 *fill*         0x100073c3        0x1 
 .rodata.alarm_pool_cancel_alarm.str1.4
                0x100073c4       0x27 CMakeFiles/objectExample.dir/D_/Pico_Downloads/pico-sdk/src/common/pico_time/time.c.obj
 *fill*         0x100073eb        0x1 
 .rodata.__func__.0
                0x100073ec       0x18 CMakeFiles/objectExample.dir/D_/Pico_Downloads/pico-sdk/src/common/pico_time/time.c.obj
 .rodata.__func__.10
                0x10007404       0x17 CMakeFiles/objectExample.dir/D_/Pico_Downloads/pico-sdk/src/common/pico_time/time.c.obj
 *fill*         0x1000741b        0x1 
 .rodata.__func__.2
                0x1000741c       0x12 CMakeFiles/objectExample.dir/D_/Pico_Downloads/pico-sdk/src/common/pico_time/time.c.obj
 *fill*         0x1000742e        0x2 
 .rodata.__func__.3
                0x10007430       0x14 CMakeFiles/objectExample.dir/D_/Pico_Downloads/pico-sdk/src/common/pico_time/time.c.obj
 .rodata.__func__.4
                0x10007444       0x12 CMakeFiles/objectExample.dir/D_/Pico_Downloads/pico-sdk/src/common/pico_time/time.c.obj
 *fill*         0x10007456        0x2 
 .rodata.__func__.5
                0x10007458        0xa CMakeFiles/objectExample.dir/D_/Pico_Downloads/pico-sdk/src/common/pico_time/time.c.obj
 *fill*         0x10007462        0x2 
 .rodata.__func__.6
                0x10007464        0xc CMakeFiles/objectExample.dir/D_/Pico_Downloads/pico-sdk/src/common/pico_time/time.c.obj
 .rodata.__func__.7
                0x10007470       0x15 CMakeFiles/objectExample.dir/D_/Pico_Downloads/pico-sdk/src/common/pico_time/time.c.obj
 *fill*         0x10007485        0x3 
 .rodata.__func__.8
                0x10007488       0x1a CMakeFiles/objectExample.dir/D_/Pico_Downloads/pico-sdk/src/common/pico_time/time.c.obj
 *fill*         0x100074a2        0x2 
 .rodata.__func__.9
                0x100074a4        0xa CMakeFiles/objectExample.dir/D_/Pico_Downloads/pico-sdk/src/common/pico_time/time.c.obj
 *fill*         0x100074ae        0x2 
 .rodata.hardware_alarm_claim.str1.4
                0x100074b0       0x22 CMakeFiles/objectExample.dir/D_/Pico_Downloads/pico-sdk/src/rp2_common/hardware_timer/timer.c.obj
 *fill*         0x100074d2        0x2 
 .rodata.hardware_alarm_set_target.str1.4
                0x100074d4       0x65 CMakeFiles/objectExample.dir/D_/Pico_Downloads/pico-sdk/src/rp2_common/hardware_timer/timer.c.obj
 *fill*         0x10007539        0x3 
 .rodata.__func__.0
                0x1000753c       0x1a CMakeFiles/objectExample.dir/D_/Pico_Downloads/pico-sdk/src/rp2_common/hardware_timer/timer.c.obj
 *fill*         0x10007556        0x2 
 .rodata.lock_init.str1.4
                0x10007558       0x68 CMakeFiles/objectExample.dir/D_/Pico_Downloads/pico-sdk/src/common/pico_sync/lock_core.c.obj
 .rodata.__func__.0
                0x100075c0        0xa CMakeFiles/objectExample.dir/D_/Pico_Downloads/pico-sdk/src/common/pico_sync/lock_core.c.obj
 *fill*         0x100075ca        0x2 
 .rodata.str1.4
                0x100075cc       0x5c CMakeFiles/objectExample.dir/D_/Pico_Downloads/pico-sdk/src/common/pico_sync/mutex.c.obj
 .rodata.__func__.0
                0x10007628        0xb CMakeFiles/objectExample.dir/D_/Pico_Downloads/pico-sdk/src/common/pico_sync/mutex.c.obj
 *fill*         0x10007633        0x1 
 .rodata.__func__.1
                0x10007634       0x18 CMakeFiles/objectExample.dir/D_/Pico_Downloads/pico-sdk/src/common/pico_sync/mutex.c.obj
 .rodata.__func__.2
                0x1000764c       0x15 CMakeFiles/objectExample.dir/D_/Pico_Downloads/pico-sdk/src/common/pico_sync/mutex.c.obj
 .rodata.ph_add_child_node.str1.4
                0x10007661       0x8e CMakeFiles/objectExample.dir/D_/Pico_Downloads/pico-sdk/src/common/pico_util/pheap.c.obj
 *fill*         0x10007661        0x3 
 .rodata.ph_remove_any_head.str1.4
                0x10007664       0x8c CMakeFiles/objectExample.dir/D_/Pico_Downloads/pico-sdk/src/common/pico_util/pheap.c.obj
 .rodata.ph_delete.str1.4
                0x100076f0       0x26 CMakeFiles/objectExample.dir/D_/Pico_Downloads/pico-sdk/src/common/pico_util/pheap.c.obj
 *fill*         0x10007716        0x2 
 .rodata.__func__.0
                0x10007718        0xa CMakeFiles/objectExample.dir/D_/Pico_Downloads/pico-sdk/src/common/pico_util/pheap.c.obj
 *fill*         0x10007722        0x2 
 .rodata.__func__.1
                0x10007724       0x13 CMakeFiles/objectExample.dir/D_/Pico_Downloads/pico-sdk/src/common/pico_util/pheap.c.obj
 *fill*         0x10007737        0x1 
 .rodata.__func__.2
                0x10007738       0x12 CMakeFiles/objectExample.dir/D_/Pico_Downloads/pico-sdk/src/common/pico_util/pheap.c.obj
 *fill*         0x1000774a        0x2 
 .rodata.__func__.3
                0x1000774c        0xc CMakeFiles/objectExample.dir/D_/Pico_Downloads/pico-sdk/src/common/pico_util/pheap.c.obj
 .rodata.__assert_func.str1.4
                0x10007758       0x3f CMakeFiles/objectExample.dir/D_/Pico_Downloads/pico-sdk/src/rp2_common/pico_runtime/runtime.c.obj
                                 0x43 (size before relaxing)
 *fill*         0x10007797        0x1 
 .rodata.panic.str1.4
                0x10007798       0x12 CMakeFiles/objectExample.dir/D_/Pico_Downloads/pico-sdk/src/rp2_common/pico_runtime/runtime.c.obj
 *fill*         0x100077aa        0x2 
 .rodata.clock_configure.str1.4
                0x100077ac       0x57 CMakeFiles/objectExample.dir/D_/Pico_Downloads/pico-sdk/src/rp2_common/hardware_clocks/clocks.c.obj
 *fill*         0x10007803        0x1 
 .rodata.__func__.1
                0x10007804       0x10 CMakeFiles/objectExample.dir/D_/Pico_Downloads/pico-sdk/src/rp2_common/hardware_clocks/clocks.c.obj
 .rodata.pll_init.str1.4
                0x10007814       0xdb CMakeFiles/objectExample.dir/D_/Pico_Downloads/pico-sdk/src/rp2_common/hardware_pll/pll.c.obj
 *fill*         0x100078ef        0x1 
 .rodata.__func__.0
                0x100078f0        0x9 CMakeFiles/objectExample.dir/D_/Pico_Downloads/pico-sdk/src/rp2_common/hardware_pll/pll.c.obj
 *fill*         0x100078f9        0x3 
 .rodata.make_branch.str1.4
                0x100078fc       0x4d CMakeFiles/objectExample.dir/D_/Pico_Downloads/pico-sdk/src/rp2_common/hardware_irq/irq.c.obj
 *fill*         0x10007949        0x3 
 .rodata.irq_set_exclusive_handler.str1.4
                0x1000794c       0x36 CMakeFiles/objectExample.dir/D_/Pico_Downloads/pico-sdk/src/rp2_common/hardware_irq/irq.c.obj
 *fill*         0x10007982        0x2 
 .rodata.irq_add_shared_handler.str1.4
                0x10007984       0xd9 CMakeFiles/objectExample.dir/D_/Pico_Downloads/pico-sdk/src/rp2_common/hardware_irq/irq.c.obj
 *fill*         0x10007a5d        0x3 
 .rodata.irq_remove_handler.str1.4
                0x10007a60       0x2a CMakeFiles/objectExample.dir/D_/Pico_Downloads/pico-sdk/src/rp2_common/hardware_irq/irq.c.obj
 *fill*         0x10007a8a        0x2 
 .rodata.irq_add_tail_to_free_list.str1.4
                0x10007a8c       0x32 CMakeFiles/objectExample.dir/D_/Pico_Downloads/pico-sdk/src/rp2_common/hardware_irq/irq.c.obj
                                 0x3a (size before relaxing)
 *fill*         0x10007abe        0x2 
 .rodata.__func__.0
                0x10007ac0       0x1a CMakeFiles/objectExample.dir/D_/Pico_Downloads/pico-sdk/src/rp2_common/hardware_irq/irq.c.obj
 *fill*         0x10007ada        0x2 
 .rodata.__func__.1
                0x10007adc       0x17 CMakeFiles/objectExample.dir/D_/Pico_Downloads/pico-sdk/src/rp2_common/hardware_irq/irq.c.obj
 *fill*         0x10007af3        0x1 
 .rodata.__func__.2
                0x10007af4       0x13 CMakeFiles/objectExample.dir/D_/Pico_Downloads/pico-sdk/src/rp2_common/hardware_irq/irq.c.obj
 *fill*         0x10007b07        0x1 
 .rodata.__func__.3
                0x10007b08        0xc CMakeFiles/objectExample.dir/D_/Pico_Downloads/pico-sdk/src/rp2_common/hardware_irq/irq.c.obj
 .rodata.__func__.4
                0x10007b14        0xf CMakeFiles/objectExample.dir/D_/Pico_Downloads/pico-sdk/src/rp2_common/hardware_irq/irq.c.obj
 *fill*         0x10007b23        0x1 
 .rodata.__func__.6
                0x10007b24       0x1a CMakeFiles/objectExample.dir/D_/Pico_Downloads/pico-sdk/src/rp2_common/hardware_irq/irq.c.obj
 *fill*         0x10007b3e        0x2 
 .rodata._ftoa.str1.4
                0x10007b40       0x15 CMakeFiles/objectExample.dir/D_/Pico_Downloads/pico-sdk/src/rp2_common/pico_printf/printf.c.obj
 *fill*         0x10007b55        0x3 
 .rodata._vsnprintf
                0x10007b58      0x1e0 CMakeFiles/objectExample.dir/D_/Pico_Downloads/pico-sdk/src/rp2_common/pico_printf/printf.c.obj
 .rodata.pow10.0
                0x10007d38       0x50 CMakeFiles/objectExample.dir/D_/Pico_Downloads/pico-sdk/src/rp2_common/pico_printf/printf.c.obj
 .rodata.__aeabi_double_init.str1.4
                0x10007d88       0xa8 CMakeFiles/objectExample.dir/D_/Pico_Downloads/pico-sdk/src/rp2_common/pico_double/double_init_rom.c.obj
 .rodata.__func__.0
                0x10007e30       0x14 CMakeFiles/objectExample.dir/D_/Pico_Downloads/pico-sdk/src/rp2_common/pico_double/double_init_rom.c.obj
 .rodata.__aeabi_float_init.str1.4
                0x10007e44       0x7a CMakeFiles/objectExample.dir/D_/Pico_Downloads/pico-sdk/src/rp2_common/pico_float/float_init_rom.c.obj
                                 0x7e (size before relaxing)
 *fill*         0x10007ebe        0x2 
 .rodata.__func__.0
                0x10007ec0       0x13 CMakeFiles/objectExample.dir/D_/Pico_Downloads/pico-sdk/src/rp2_common/pico_float/float_init_rom.c.obj
 *fill*         0x10007ed3        0x1 
 .rodata.str1.4
                0x10007ed4       0x74 CMakeFiles/objectExample.dir/D_/Pico_Downloads/pico-sdk/src/rp2_common/pico_standard_link/binary_info.c.obj
 .rodata.__bi_40
                0x10007f48        0xc CMakeFiles/objectExample.dir/D_/Pico_Downloads/pico-sdk/src/rp2_common/pico_standard_link/binary_info.c.obj
 .rodata.__bi_65
                0x10007f54        0xc CMakeFiles/objectExample.dir/D_/Pico_Downloads/pico-sdk/src/rp2_common/pico_standard_link/binary_info.c.obj
 .rodata.__bi_71
                0x10007f60        0xc CMakeFiles/objectExample.dir/D_/Pico_Downloads/pico-sdk/src/rp2_common/pico_standard_link/binary_info.c.obj
 .rodata.crlf_str.1
                0x10007f6c        0x2 CMakeFiles/objectExample.dir/D_/Pico_Downloads/pico-sdk/src/rp2_common/pico_stdio/stdio.c.obj
 *fill*         0x10007f6e        0x2 
 .rodata.str1.4
                0x10007f70       0x13 CMakeFiles/objectExample.dir/D_/Pico_Downloads/pico-sdk/src/rp2_common/pico_stdio_usb/stdio_usb.c.obj
 *fill*         0x10007f83        0x1 
 .rodata.__bi_93.0
                0x10007f84        0xc CMakeFiles/objectExample.dir/D_/Pico_Downloads/pico-sdk/src/rp2_common/pico_stdio_usb/stdio_usb.c.obj
 .rodata.str1.4
                0x10007f90       0x32 CMakeFiles/objectExample.dir/D_/Pico_Downloads/pico-sdk/src/rp2_common/pico_stdio_usb/stdio_usb_descriptors.c.obj
 *fill*         0x10007fc2        0x2 
 .rodata.usbd_desc_cfg
                0x10007fc4       0x4b CMakeFiles/objectExample.dir/D_/Pico_Downloads/pico-sdk/src/rp2_common/pico_stdio_usb/stdio_usb_descriptors.c.obj
 *fill*         0x1000800f        0x1 
 .rodata.usbd_desc_device
                0x10008010       0x12 CMakeFiles/objectExample.dir/D_/Pico_Downloads/pico-sdk/src/rp2_common/pico_stdio_usb/stdio_usb_descriptors.c.obj
 *fill*         0x10008022        0x2 
 .rodata.usbd_desc_str
                0x10008024       0x14 CMakeFiles/objectExample.dir/D_/Pico_Downloads/pico-sdk/src/rp2_common/pico_stdio_usb/stdio_usb_descriptors.c.obj
 .rodata._hw_endpoint_alloc.str1.4
                0x10008038       0xb5 CMakeFiles/objectExample.dir/D_/Pico_Downloads/pico-sdk/lib/tinyusb/src/portable/raspberrypi/rp2040/dcd_rp2040.c.obj
 *fill*         0x100080ed        0x3 
 .rodata._hw_endpoint_init.str1.4
                0x100080f0       0x28 CMakeFiles/objectExample.dir/D_/Pico_Downloads/pico-sdk/lib/tinyusb/src/portable/raspberrypi/rp2040/dcd_rp2040.c.obj
 .rodata.hw_handle_buff_status.str1.4
                0x10008118        0xb CMakeFiles/objectExample.dir/D_/Pico_Downloads/pico-sdk/lib/tinyusb/src/portable/raspberrypi/rp2040/dcd_rp2040.c.obj
 *fill*         0x10008123        0x1 
 .rodata.dcd_rp2040_irq.str1.4
                0x10008124       0x14 CMakeFiles/objectExample.dir/D_/Pico_Downloads/pico-sdk/lib/tinyusb/src/portable/raspberrypi/rp2040/dcd_rp2040.c.obj
 .rodata._hw_endpoint_stall.str1.4
                0x10008138        0xd CMakeFiles/objectExample.dir/D_/Pico_Downloads/pico-sdk/lib/tinyusb/src/portable/raspberrypi/rp2040/dcd_rp2040.c.obj
 *fill*         0x10008145        0x3 
 .rodata.dcd_int_enable.str1.4
                0x10008148        0xc CMakeFiles/objectExample.dir/D_/Pico_Downloads/pico-sdk/lib/tinyusb/src/portable/raspberrypi/rp2040/dcd_rp2040.c.obj
 .rodata.__func__.0
                0x10008154       0x15 CMakeFiles/objectExample.dir/D_/Pico_Downloads/pico-sdk/lib/tinyusb/src/portable/raspberrypi/rp2040/dcd_rp2040.c.obj
 *fill*         0x10008169        0x3 
 .rodata.__func__.1
                0x1000816c       0x13 CMakeFiles/objectExample.dir/D_/Pico_Downloads/pico-sdk/lib/tinyusb/src/portable/raspberrypi/rp2040/dcd_rp2040.c.obj
 *fill*         0x1000817f        0x1 
 .rodata.__func__.10
                0x10008180        0xf CMakeFiles/objectExample.dir/D_/Pico_Downloads/pico-sdk/lib/tinyusb/src/portable/raspberrypi/rp2040/dcd_rp2040.c.obj
 *fill*         0x1000818f        0x1 
 .rodata.__func__.11
                0x10008190       0x13 CMakeFiles/objectExample.dir/D_/Pico_Downloads/pico-sdk/lib/tinyusb/src/portable/raspberrypi/rp2040/dcd_rp2040.c.obj
 *fill*         0x100081a3        0x1 
 .rodata.__func__.12
                0x100081a4       0x16 CMakeFiles/objectExample.dir/D_/Pico_Downloads/pico-sdk/lib/tinyusb/src/portable/raspberrypi/rp2040/dcd_rp2040.c.obj
 *fill*         0x100081ba        0x2 
 .rodata.__func__.13
                0x100081bc        0x9 CMakeFiles/objectExample.dir/D_/Pico_Downloads/pico-sdk/lib/tinyusb/src/portable/raspberrypi/rp2040/dcd_rp2040.c.obj
 *fill*         0x100081c5        0x3 
 .rodata.__func__.2
                0x100081c8        0xf CMakeFiles/objectExample.dir/D_/Pico_Downloads/pico-sdk/lib/tinyusb/src/portable/raspberrypi/rp2040/dcd_rp2040.c.obj
 *fill*         0x100081d7        0x1 
 .rodata.__func__.3
                0x100081d8        0xe CMakeFiles/objectExample.dir/D_/Pico_Downloads/pico-sdk/lib/tinyusb/src/portable/raspberrypi/rp2040/dcd_rp2040.c.obj
 *fill*         0x100081e6        0x2 
 .rodata.__func__.4
                0x100081e8        0xe CMakeFiles/objectExample.dir/D_/Pico_Downloads/pico-sdk/lib/tinyusb/src/portable/raspberrypi/rp2040/dcd_rp2040.c.obj
 *fill*         0x100081f6        0x2 
 .rodata.__func__.5
                0x100081f8       0x1a CMakeFiles/objectExample.dir/D_/Pico_Downloads/pico-sdk/lib/tinyusb/src/portable/raspberrypi/rp2040/dcd_rp2040.c.obj
 *fill*         0x10008212        0x2 
 .rodata.__func__.6
                0x10008214        0xc CMakeFiles/objectExample.dir/D_/Pico_Downloads/pico-sdk/lib/tinyusb/src/portable/raspberrypi/rp2040/dcd_rp2040.c.obj
 .rodata.__func__.8
                0x10008220       0x10 CMakeFiles/objectExample.dir/D_/Pico_Downloads/pico-sdk/lib/tinyusb/src/portable/raspberrypi/rp2040/dcd_rp2040.c.obj
 .rodata._hw_endpoint_buffer_control_update32.str1.4
                0x10008230       0x1f CMakeFiles/objectExample.dir/D_/Pico_Downloads/pico-sdk/lib/tinyusb/src/portable/raspberrypi/rp2040/rp2040_usb.c.obj
 *fill*         0x1000824f        0x1 
 .rodata._hw_endpoint_xfer_sync.str1.4
                0x10008250       0x91 CMakeFiles/objectExample.dir/D_/Pico_Downloads/pico-sdk/lib/tinyusb/src/portable/raspberrypi/rp2040/rp2040_usb.c.obj
 *fill*         0x100082e1        0x3 
 .rodata._hw_endpoint_xfer_continue.str1.4
                0x100082e4       0x50 CMakeFiles/objectExample.dir/D_/Pico_Downloads/pico-sdk/lib/tinyusb/src/portable/raspberrypi/rp2040/rp2040_usb.c.obj
 .rodata._hw_endpoint_xfer.str1.4
                0x10008334        0xf CMakeFiles/objectExample.dir/D_/Pico_Downloads/pico-sdk/lib/tinyusb/src/portable/raspberrypi/rp2040/rp2040_usb.c.obj
 *fill*         0x10008343        0x1 
 .rodata.str1.4
                0x10008344        0x7 CMakeFiles/objectExample.dir/D_/Pico_Downloads/pico-sdk/lib/tinyusb/src/portable/raspberrypi/rp2040/rp2040_usb.c.obj
 *fill*         0x1000834b        0x1 
 .rodata.__func__.0
                0x1000834c       0x12 CMakeFiles/objectExample.dir/D_/Pico_Downloads/pico-sdk/lib/tinyusb/src/portable/raspberrypi/rp2040/rp2040_usb.c.obj
 *fill*         0x1000835e        0x2 
 .rodata.__func__.1
                0x10008360       0x17 CMakeFiles/objectExample.dir/D_/Pico_Downloads/pico-sdk/lib/tinyusb/src/portable/raspberrypi/rp2040/rp2040_usb.c.obj
 *fill*         0x10008377        0x1 
 .rodata.process_set_config.str1.4
                0x10008378       0x17 CMakeFiles/objectExample.dir/D_/Pico_Downloads/pico-sdk/lib/tinyusb/src/device/usbd.c.obj
 *fill*         0x1000838f        0x1 
 .rodata.process_get_descriptor
                0x10008390       0x40 CMakeFiles/objectExample.dir/D_/Pico_Downloads/pico-sdk/lib/tinyusb/src/device/usbd.c.obj
 .rodata.dcd_event_handler.str1.4
                0x100083d0       0x46 CMakeFiles/objectExample.dir/D_/Pico_Downloads/pico-sdk/lib/tinyusb/src/device/usbd.c.obj
 *fill*         0x10008416        0x2 
 .rodata.process_control_request
                0x10008418       0x28 CMakeFiles/objectExample.dir/D_/Pico_Downloads/pico-sdk/lib/tinyusb/src/device/usbd.c.obj
 .rodata.tud_task
                0x10008440       0x24 CMakeFiles/objectExample.dir/D_/Pico_Downloads/pico-sdk/lib/tinyusb/src/device/usbd.c.obj
 .rodata.__func__.1
                0x10008464        0xf CMakeFiles/objectExample.dir/D_/Pico_Downloads/pico-sdk/lib/tinyusb/src/device/usbd.c.obj
 *fill*         0x10008473        0x1 
 .rodata.__func__.2
                0x10008474       0x14 CMakeFiles/objectExample.dir/D_/Pico_Downloads/pico-sdk/lib/tinyusb/src/device/usbd.c.obj
 .rodata.__func__.3
                0x10008488       0x10 CMakeFiles/objectExample.dir/D_/Pico_Downloads/pico-sdk/lib/tinyusb/src/device/usbd.c.obj
 .rodata.__func__.4
                0x10008498       0x17 CMakeFiles/objectExample.dir/D_/Pico_Downloads/pico-sdk/lib/tinyusb/src/device/usbd.c.obj
 *fill*         0x100084af        0x1 
 .rodata.__func__.5
                0x100084b0       0x13 CMakeFiles/objectExample.dir/D_/Pico_Downloads/pico-sdk/lib/tinyusb/src/device/usbd.c.obj
 *fill*         0x100084c3        0x1 
 .rodata.__func__.6
                0x100084c4       0x18 CMakeFiles/objectExample.dir/D_/Pico_Downloads/pico-sdk/lib/tinyusb/src/device/usbd.c.obj
 .rodata.__func__.7
                0x100084dc       0x13 CMakeFiles/objectExample.dir/D_/Pico_Downloads/pico-sdk/lib/tinyusb/src/device/usbd.c.obj
 *fill*         0x100084ef        0x1 
 .rodata.__func__.8
                0x100084f0        0x9 CMakeFiles/objectExample.dir/D_/Pico_Downloads/pico-sdk/lib/tinyusb/src/device/usbd.c.obj
 *fill*         0x100084f9        0x3 
 .rodata._usbd_driver
                0x100084fc       0x1c CMakeFiles/objectExample.dir/D_/Pico_Downloads/pico-sdk/lib/tinyusb/src/device/usbd.c.obj
 .rodata.tud_control_xfer.str1.4
                0x10008518       0x17 CMakeFiles/objectExample.dir/D_/Pico_Downloads/pico-sdk/lib/tinyusb/src/device/usbd_control.c.obj
 .rodata.__func__.0
                0x10008518       0x15 CMakeFiles/objectExample.dir/D_/Pico_Downloads/pico-sdk/lib/tinyusb/src/device/usbd_control.c.obj
 *fill*         0x1000852d        0x3 
 .rodata.__func__.1
                0x10008530       0x11 CMakeFiles/objectExample.dir/D_/Pico_Downloads/pico-sdk/lib/tinyusb/src/device/usbd_control.c.obj
 .rodata.tud_cdc_n_write_flush.str1.4
                0x10008541       0x17 CMakeFiles/objectExample.dir/D_/Pico_Downloads/pico-sdk/lib/tinyusb/src/class/cdc/cdc_device.c.obj
 *fill*         0x10008541        0x3 
 .rodata.__func__.0
                0x10008544        0xd CMakeFiles/objectExample.dir/D_/Pico_Downloads/pico-sdk/lib/tinyusb/src/class/cdc/cdc_device.c.obj
 *fill*         0x10008551        0x3 
 .rodata.__func__.1
                0x10008554        0xa CMakeFiles/objectExample.dir/D_/Pico_Downloads/pico-sdk/lib/tinyusb/src/class/cdc/cdc_device.c.obj
 *fill*         0x1000855e        0x2 
 .rodata.__func__.2
                0x10008560       0x16 CMakeFiles/objectExample.dir/D_/Pico_Downloads/pico-sdk/lib/tinyusb/src/class/cdc/cdc_device.c.obj
 .rodata.tusb_init.str1.4
                0x10008576       0x17 CMakeFiles/objectExample.dir/D_/Pico_Downloads/pico-sdk/lib/tinyusb/src/tusb.c.obj
 *fill*         0x10008576        0x2 
 .rodata.__func__.0
                0x10008578        0xa CMakeFiles/objectExample.dir/D_/Pico_Downloads/pico-sdk/lib/tinyusb/src/tusb.c.obj
                0x10008584                . = ALIGN (0x4)
 *fill*         0x10008582        0x2 
 *(SORT_BY_ALIGNMENT(SORT_BY_NAME(.flashdata*)))
                0x10008584                . = ALIGN (0x4)

.rel.dyn        0x10008584        0x0
 .rel.iplt      0x10008584        0x0 c:/progra~2/gnuarm~1/102020~1/bin/../lib/gcc/arm-none-eabi/10.2.1/thumb/v6-m/nofp/crtbegin.o

.ARM.extab
 *(.ARM.extab* .gnu.linkonce.armextab.*)
                0x10008584                __exidx_start = .

.ARM.exidx
 *(.ARM.exidx* .gnu.linkonce.armexidx.*)
                0x10008584                __exidx_end = .
                0x10008584                . = ALIGN (0x4)
                0x10008584                __binary_info_start = .

.binary_info    0x10008584       0x20
 *(.binary_info.keep.*)
 .binary_info.keep.__bi_ptr18
                0x10008584        0x4 CMakeFiles/objectExample.dir/D_/Pico_Downloads/pico-sdk/src/rp2_common/pico_standard_link/binary_info.c.obj
 .binary_info.keep.__bi_ptr26
                0x10008588        0x4 CMakeFiles/objectExample.dir/D_/Pico_Downloads/pico-sdk/src/rp2_common/pico_standard_link/binary_info.c.obj
 .binary_info.keep.__bi_ptr34
                0x1000858c        0x4 CMakeFiles/objectExample.dir/D_/Pico_Downloads/pico-sdk/src/rp2_common/pico_standard_link/binary_info.c.obj
 .binary_info.keep.__bi_ptr40
                0x10008590        0x4 CMakeFiles/objectExample.dir/D_/Pico_Downloads/pico-sdk/src/rp2_common/pico_standard_link/binary_info.c.obj
 .binary_info.keep.__bi_ptr46
                0x10008594        0x4 CMakeFiles/objectExample.dir/D_/Pico_Downloads/pico-sdk/src/rp2_common/pico_standard_link/binary_info.c.obj
 .binary_info.keep.__bi_ptr65
                0x10008598        0x4 CMakeFiles/objectExample.dir/D_/Pico_Downloads/pico-sdk/src/rp2_common/pico_standard_link/binary_info.c.obj
 .binary_info.keep.__bi_ptr71
                0x1000859c        0x4 CMakeFiles/objectExample.dir/D_/Pico_Downloads/pico-sdk/src/rp2_common/pico_standard_link/binary_info.c.obj
 *(.binary_info.*)
 .binary_info.__bi_ptr93
                0x100085a0        0x4 CMakeFiles/objectExample.dir/D_/Pico_Downloads/pico-sdk/src/rp2_common/pico_stdio_usb/stdio_usb.c.obj
                0x100085a4                __binary_info_end = .
                0x100085a4                . = ALIGN (0x4)
                0x100085a4                __etext = .

.ram_vector_table
                0x20000000       0xc0
 *(.ram_vector_table)
 .ram_vector_table
                0x20000000       0xc0 CMakeFiles/objectExample.dir/D_/Pico_Downloads/pico-sdk/src/rp2_common/pico_runtime/runtime.c.obj
                0x20000000                ram_vector_table

.data           0x200000c0      0xb20 load address 0x100085a4
                0x200000c0                __data_start__ = .
 *(vtable)
 *(.time_critical*)
 .time_critical.mutex_enter_blocking
                0x200000c0       0x64 CMakeFiles/objectExample.dir/D_/Pico_Downloads/pico-sdk/src/common/pico_sync/mutex.c.obj
                0x200000c0                mutex_enter_blocking
 .time_critical.mutex_try_enter
                0x20000124       0x44 CMakeFiles/objectExample.dir/D_/Pico_Downloads/pico-sdk/src/common/pico_sync/mutex.c.obj
                0x20000124                mutex_try_enter
 .time_critical.mutex_enter_block_until
                0x20000168       0x78 CMakeFiles/objectExample.dir/D_/Pico_Downloads/pico-sdk/src/common/pico_sync/mutex.c.obj
                0x20000168                mutex_enter_block_until
 .time_critical.mutex_enter_timeout_ms
                0x200001e0       0x4a CMakeFiles/objectExample.dir/D_/Pico_Downloads/pico-sdk/src/common/pico_sync/mutex.c.obj
                0x200001e0                mutex_enter_timeout_ms
 *fill*         0x2000022a        0x2 
 .time_critical.mutex_exit
                0x2000022c       0x4c CMakeFiles/objectExample.dir/D_/Pico_Downloads/pico-sdk/src/common/pico_sync/mutex.c.obj
                0x2000022c                mutex_exit
 *(.text*)
 .text          0x20000278        0x4 c:/progra~2/gnuarm~1/102020~1/bin/../lib/gcc/arm-none-eabi/10.2.1/thumb/v6-m/nofp\libgcc.a(_dvmd_tls.o)
                0x20000278                __aeabi_idiv0
                0x20000278                __aeabi_ldiv0
 *fill*         0x2000027c        0x4 
 .text.__stub   0x20000280       0x40 linker stubs
                0x200002c0                . = ALIGN (0x4)
 *(.rodata*)
                0x200002c0                . = ALIGN (0x4)
 *(.data*)
 .data.echoPin  0x200002c0        0x4 CMakeFiles/objectExample.dir/objectExample.cpp.obj
                0x200002c0                echoPin
 .data.trigPin  0x200002c4        0x4 CMakeFiles/objectExample.dir/objectExample.cpp.obj
                0x200002c4                trigPin
 .data.striped_spin_lock_num
                0x200002c8        0x1 CMakeFiles/objectExample.dir/D_/Pico_Downloads/pico-sdk/src/rp2_common/hardware_sync/sync.c.obj
 *fill*         0x200002c9        0x3 
 .data          0x200002cc       0x48 CMakeFiles/objectExample.dir/D_/Pico_Downloads/pico-sdk/src/rp2_common/hardware_irq/irq_handler_chain.S.obj
                0x200002cc                irq_handler_chain_slots
                0x200002fc                irq_handler_chain_first_slot
                0x20000306                irq_handler_chain_remove_tail
 *fill*         0x20000314        0xc 
 .data.aeabi_bits_funcs
                0x20000320       0x10 CMakeFiles/objectExample.dir/D_/Pico_Downloads/pico-sdk/src/rp2_common/pico_bit_ops/bit_ops_aeabi.S.obj
                0x20000320                aeabi_bits_funcs
                0x20000330                aeabi_bits_funcs_end
 .data.aeabi_mem_funcs
                0x20000330       0x10 CMakeFiles/objectExample.dir/D_/Pico_Downloads/pico-sdk/src/rp2_common/pico_mem_ops/mem_ops_aeabi.S.obj
                0x20000330                aeabi_mem_funcs
                0x20000340                aeabi_mem_funcs_end
 .data.stdio_usb
                0x20000340       0x14 CMakeFiles/objectExample.dir/D_/Pico_Downloads/pico-sdk/src/rp2_common/pico_stdio_usb/stdio_usb.c.obj
                0x20000340                stdio_usb
 .data.ep_dir_string
                0x20000354        0x8 CMakeFiles/objectExample.dir/D_/Pico_Downloads/pico-sdk/lib/tinyusb/src/portable/raspberrypi/rp2040/rp2040_usb.c.obj
                0x20000354                ep_dir_string
 .data._usbd_qdef
                0x2000035c       0x20 CMakeFiles/objectExample.dir/D_/Pico_Downloads/pico-sdk/lib/tinyusb/src/device/usbd.c.obj
                0x2000035c                _usbd_qdef
 .data.timeout  0x2000037c        0x4 ..\ultrasonic\libpico_ultrasonic_object.a(ultrasonic.c.obj)
                0x2000037c                timeout
 .data._impure_ptr
                0x20000380        0x4 c:/progra~2/gnuarm~1/102020~1/bin/../lib/gcc/arm-none-eabi/10.2.1/../../../../arm-none-eabi/lib/thumb/v6-m/nofp\libg.a(lib_a-impure.o)
                0x20000380                _impure_ptr
 *fill*         0x20000384        0x4 
 .data.impure_data
                0x20000388      0x428 c:/progra~2/gnuarm~1/102020~1/bin/../lib/gcc/arm-none-eabi/10.2.1/../../../../arm-none-eabi/lib/thumb/v6-m/nofp\libg.a(lib_a-impure.o)
 .data.__malloc_av_
                0x200007b0      0x408 c:/progra~2/gnuarm~1/102020~1/bin/../lib/gcc/arm-none-eabi/10.2.1/../../../../arm-none-eabi/lib/thumb/v6-m/nofp\libg.a(lib_a-mallocr.o)
                0x200007b0                __malloc_av_
 .data.__malloc_sbrk_base
                0x20000bb8        0x4 c:/progra~2/gnuarm~1/102020~1/bin/../lib/gcc/arm-none-eabi/10.2.1/../../../../arm-none-eabi/lib/thumb/v6-m/nofp\libg.a(lib_a-mallocr.o)
                0x20000bb8                __malloc_sbrk_base
 .data.__malloc_trim_threshold
                0x20000bbc        0x4 c:/progra~2/gnuarm~1/102020~1/bin/../lib/gcc/arm-none-eabi/10.2.1/../../../../arm-none-eabi/lib/thumb/v6-m/nofp\libg.a(lib_a-mallocr.o)
                0x20000bbc                __malloc_trim_threshold
                0x20000bc0                . = ALIGN (0x4)
 *(.after_data.*)
                0x20000bc0                . = ALIGN (0x4)
                0x20000bc0                PROVIDE (__mutex_array_start = .)
 *(SORT_BY_NAME(.mutex_array.*))
 *(.mutex_array)
 .mutex_array   0x20000bc0        0x8 CMakeFiles/objectExample.dir/D_/Pico_Downloads/pico-sdk/src/rp2_common/pico_stdio/stdio.c.obj
                0x20000bc8                PROVIDE (__mutex_array_end = .)
                0x20000bc8                . = ALIGN (0x4)
                0x20000bc8                PROVIDE (__preinit_array_start = .)
 *(SORT_BY_NAME(.preinit_array.*))
 .preinit_array.00001
                0x20000bc8        0x4 CMakeFiles/objectExample.dir/D_/Pico_Downloads/pico-sdk/src/rp2_common/pico_mem_ops/mem_ops_aeabi.S.obj
 .preinit_array.00010
                0x20000bcc        0x4 CMakeFiles/objectExample.dir/D_/Pico_Downloads/pico-sdk/src/rp2_common/pico_bit_ops/bit_ops_aeabi.S.obj
 .preinit_array.00020
                0x20000bd0        0x4 CMakeFiles/objectExample.dir/D_/Pico_Downloads/pico-sdk/src/rp2_common/pico_double/double_aeabi.S.obj
 .preinit_array.00020
                0x20000bd4        0x4 CMakeFiles/objectExample.dir/D_/Pico_Downloads/pico-sdk/src/rp2_common/pico_float/float_aeabi.S.obj
 *(.preinit_array)
                0x20000bd8                PROVIDE (__preinit_array_end = .)
                0x20000bd8                . = ALIGN (0x4)
                0x20000bd8                PROVIDE (__init_array_start = .)
 *(SORT_BY_NAME(.init_array.*))
 *(.init_array)
 .init_array    0x20000bd8        0x4 c:/progra~2/gnuarm~1/102020~1/bin/../lib/gcc/arm-none-eabi/10.2.1/thumb/v6-m/nofp/crtbegin.o
 .init_array    0x20000bdc        0x4 CMakeFiles/objectExample.dir/objectExample.cpp.obj
                0x20000be0                PROVIDE (__init_array_end = .)
                0x20000be0                . = ALIGN (0x4)
                [!provide]                PROVIDE (__fini_array_start = .)
 *(SORT_BY_NAME(.fini_array.*))
 *(.fini_array)
                [!provide]                PROVIDE (__fini_array_end = .)
 *(.jcr)
                0x20000be0                . = ALIGN (0x4)
                0x20000be0                __data_end__ = .

.igot.plt       0x20000be0        0x0 load address 0x100090c4
 .igot.plt      0x20000be0        0x0 c:/progra~2/gnuarm~1/102020~1/bin/../lib/gcc/arm-none-eabi/10.2.1/thumb/v6-m/nofp/crtbegin.o

.uninitialized_data
                0x20000be0        0x0 load address 0x100090c4
                0x20000be0                . = ALIGN (0x4)
 *(.uninitialized_data*)

.scratch_x      0x20040000        0x0 load address 0x100090c4
                0x20040000                __scratch_x_start__ = .
 *(.scratch_x.*)
                0x20040000                . = ALIGN (0x4)
                0x20040000                __scratch_x_end__ = .
                0x100090c4                __scratch_x_source__ = LOADADDR (.scratch_x)

.scratch_y      0x20041000        0x0 load address 0x100090c4
                0x20041000                __scratch_y_start__ = .
 *(.scratch_y.*)
                0x20041000                . = ALIGN (0x4)
                0x20041000                __scratch_y_end__ = .
                0x100090c4                __scratch_y_source__ = LOADADDR (.scratch_y)

.bss            0x20000be0      0xdc4
                0x20000be0                . = ALIGN (0x4)
                0x20000be0                __bss_start__ = .
 *(SORT_BY_ALIGNMENT(SORT_BY_NAME(.bss*)))
 .bss.last_avail_time.1
                0x20000be0        0x8 CMakeFiles/objectExample.dir/D_/Pico_Downloads/pico-sdk/src/rp2_common/pico_stdio_usb/stdio_usb.c.obj
 .bss           0x20000be8       0x1c c:/progra~2/gnuarm~1/102020~1/bin/../lib/gcc/arm-none-eabi/10.2.1/thumb/v6-m/nofp/crtbegin.o
 .bss.__lock___malloc_recursive_mutex
                0x20000c04        0x1 c:/progra~2/gnuarm~1/102020~1/bin/../lib/gcc/arm-none-eabi/10.2.1/../../../../arm-none-eabi/lib/thumb/v6-m/nofp\libg.a(lib_a-lock.o)
                0x20000c04                __lock___malloc_recursive_mutex
 *fill*         0x20000c05        0x3 
 .bss.__malloc_current_mallinfo
                0x20000c08       0x28 c:/progra~2/gnuarm~1/102020~1/bin/../lib/gcc/arm-none-eabi/10.2.1/../../../../arm-none-eabi/lib/thumb/v6-m/nofp\libg.a(lib_a-mallocr.o)
                0x20000c08                __malloc_current_mallinfo
 .bss.__malloc_max_sbrked_mem
                0x20000c30        0x4 c:/progra~2/gnuarm~1/102020~1/bin/../lib/gcc/arm-none-eabi/10.2.1/../../../../arm-none-eabi/lib/thumb/v6-m/nofp\libg.a(lib_a-mallocr.o)
                0x20000c30                __malloc_max_sbrked_mem
 .bss.__malloc_max_total_mem
                0x20000c34        0x4 c:/progra~2/gnuarm~1/102020~1/bin/../lib/gcc/arm-none-eabi/10.2.1/../../../../arm-none-eabi/lib/thumb/v6-m/nofp\libg.a(lib_a-mallocr.o)
                0x20000c34                __malloc_max_total_mem
 .bss.__malloc_top_pad
                0x20000c38        0x4 c:/progra~2/gnuarm~1/102020~1/bin/../lib/gcc/arm-none-eabi/10.2.1/../../../../arm-none-eabi/lib/thumb/v6-m/nofp\libg.a(lib_a-mallocr.o)
                0x20000c38                __malloc_top_pad
 .bss._app_driver
                0x20000c3c        0x4 CMakeFiles/objectExample.dir/D_/Pico_Downloads/pico-sdk/lib/tinyusb/src/device/usbd.c.obj
 .bss._cdcd_itf
                0x20000c40      0x2d0 CMakeFiles/objectExample.dir/D_/Pico_Downloads/pico-sdk/lib/tinyusb/src/class/cdc/cdc_device.c.obj
 .bss._ctrl_xfer
                0x20000f10       0x14 CMakeFiles/objectExample.dir/D_/Pico_Downloads/pico-sdk/lib/tinyusb/src/device/usbd_control.c.obj
 .bss._ubsd_mutexdef
                0x20000f24        0x8 CMakeFiles/objectExample.dir/D_/Pico_Downloads/pico-sdk/lib/tinyusb/src/device/usbd.c.obj
 .bss._usbd_ctrl_buf
                0x20000f2c       0x40 CMakeFiles/objectExample.dir/D_/Pico_Downloads/pico-sdk/lib/tinyusb/src/device/usbd_control.c.obj
 .bss._usbd_dev
                0x20000f6c       0x37 CMakeFiles/objectExample.dir/D_/Pico_Downloads/pico-sdk/lib/tinyusb/src/device/usbd.c.obj
 *fill*         0x20000fa3        0x1 
 .bss._usbd_mutex
                0x20000fa4        0x4 CMakeFiles/objectExample.dir/D_/Pico_Downloads/pico-sdk/lib/tinyusb/src/device/usbd.c.obj
 .bss._usbd_q   0x20000fa8        0x4 CMakeFiles/objectExample.dir/D_/Pico_Downloads/pico-sdk/lib/tinyusb/src/device/usbd.c.obj
 .bss._usbd_qdef_buf
                0x20000fac       0xc0 CMakeFiles/objectExample.dir/D_/Pico_Downloads/pico-sdk/lib/tinyusb/src/device/usbd.c.obj
                0x20000fac                _usbd_qdef_buf
 .bss.alarm_callbacks
                0x2000106c       0x10 CMakeFiles/objectExample.dir/D_/Pico_Downloads/pico-sdk/src/rp2_common/hardware_timer/timer.c.obj
 .bss.claimed   0x2000107c        0x4 CMakeFiles/objectExample.dir/D_/Pico_Downloads/pico-sdk/src/rp2_common/hardware_sync/sync.c.obj
 .bss.configured_freq
                0x20001080       0x28 CMakeFiles/objectExample.dir/D_/Pico_Downloads/pico-sdk/src/rp2_common/hardware_clocks/clocks.c.obj
 .bss.default_alarm_pool
                0x200010a8        0x4 CMakeFiles/objectExample.dir/D_/Pico_Downloads/pico-sdk/src/common/pico_time/time.c.obj
 .bss.desc_str.0
                0x200010ac       0x28 CMakeFiles/objectExample.dir/D_/Pico_Downloads/pico-sdk/src/rp2_common/pico_stdio_usb/stdio_usb_descriptors.c.obj
 .bss.drivers   0x200010d4        0x4 CMakeFiles/objectExample.dir/D_/Pico_Downloads/pico-sdk/src/rp2_common/pico_stdio/stdio.c.obj
 .bss.errno     0x200010d8        0x4 c:/progra~2/gnuarm~1/102020~1/bin/../lib/gcc/arm-none-eabi/10.2.1/../../../../arm-none-eabi/lib/thumb/v6-m/nofp\libg.a(lib_a-reent.o)
                0x200010d8                errno
 .bss.filter    0x200010dc        0x4 CMakeFiles/objectExample.dir/D_/Pico_Downloads/pico-sdk/src/rp2_common/pico_stdio/stdio.c.obj
 .bss.heap_end.0
                0x200010e0        0x4 CMakeFiles/objectExample.dir/D_/Pico_Downloads/pico-sdk/src/rp2_common/pico_runtime/runtime.c.obj
 .bss.hw_endpoints
                0x200010e4      0x680 CMakeFiles/objectExample.dir/D_/Pico_Downloads/pico-sdk/lib/tinyusb/src/portable/raspberrypi/rp2040/dcd_rp2040.c.obj
 .bss.myUltrasonic
                0x20001764        0x8 CMakeFiles/objectExample.dir/objectExample.cpp.obj
                0x20001764                myUltrasonic
 .bss.next_buffer_ptr
                0x2000176c        0x4 CMakeFiles/objectExample.dir/D_/Pico_Downloads/pico-sdk/lib/tinyusb/src/portable/raspberrypi/rp2040/dcd_rp2040.c.obj
 .bss.pools     0x20001770       0x10 CMakeFiles/objectExample.dir/D_/Pico_Downloads/pico-sdk/src/common/pico_time/time.c.obj
 .bss.sd_table  0x20001780      0x100 CMakeFiles/objectExample.dir/D_/Pico_Downloads/pico-sdk/src/rp2_common/pico_double/double_init_rom.c.obj
                0x20001780                sd_table
 .bss.sf_clz_func
                0x20001880        0x4 CMakeFiles/objectExample.dir/D_/Pico_Downloads/pico-sdk/src/rp2_common/pico_float/float_init_rom.c.obj
                0x20001880                sf_clz_func
 .bss.sf_table  0x20001884      0x100 CMakeFiles/objectExample.dir/D_/Pico_Downloads/pico-sdk/src/rp2_common/pico_float/float_init_rom.c.obj
                0x20001884                sf_table
 .bss.stdio_usb_mutex
                0x20001984        0x8 CMakeFiles/objectExample.dir/D_/Pico_Downloads/pico-sdk/src/rp2_common/pico_stdio_usb/stdio_usb.c.obj
 .bss.target_hi
                0x2000198c       0x10 CMakeFiles/objectExample.dir/D_/Pico_Downloads/pico-sdk/src/rp2_common/hardware_timer/timer.c.obj
 .bss._app_driver_count
                0x2000199c        0x1 CMakeFiles/objectExample.dir/D_/Pico_Downloads/pico-sdk/lib/tinyusb/src/device/usbd.c.obj
 .bss._initialized
                0x2000199d        0x1 CMakeFiles/objectExample.dir/D_/Pico_Downloads/pico-sdk/lib/tinyusb/src/tusb.c.obj
 .bss.assigned_address
                0x2000199e        0x1 CMakeFiles/objectExample.dir/D_/Pico_Downloads/pico-sdk/lib/tinyusb/src/portable/raspberrypi/rp2040/dcd_rp2040.c.obj
 .bss.claimed   0x2000199f        0x1 CMakeFiles/objectExample.dir/D_/Pico_Downloads/pico-sdk/src/rp2_common/hardware_timer/timer.c.obj
 .bss.irq_hander_chain_free_slot_head
                0x200019a0        0x1 CMakeFiles/objectExample.dir/D_/Pico_Downloads/pico-sdk/src/rp2_common/hardware_irq/irq.c.obj
 .bss.timer_callbacks_pending
                0x200019a1        0x1 CMakeFiles/objectExample.dir/D_/Pico_Downloads/pico-sdk/src/rp2_common/hardware_timer/timer.c.obj
 *(COMMON)
                0x200019a4                . = ALIGN (0x4)
 *fill*         0x200019a2        0x2 
                0x200019a4                __bss_end__ = .

.heap           0x200019a4      0x800
                0x200019a4                __end__ = .
                0x200019a4                end = __end__
 *(.heap*)
 .heap          0x200019a4      0x800 CMakeFiles/objectExample.dir/D_/Pico_Downloads/pico-sdk/src/rp2_common/pico_standard_link/crt0.S.obj
                0x200021a4                __HeapLimit = .

.stack1_dummy   0x20040000        0x0
 *(.stack1*)

.stack_dummy    0x20041000      0x800
 *(.stack*)
 .stack         0x20041000      0x800 CMakeFiles/objectExample.dir/D_/Pico_Downloads/pico-sdk/src/rp2_common/pico_standard_link/crt0.S.obj

.flash_end      0x100090c4        0x0
                0x100090c4                __flash_binary_end = .
                0x20040000                __StackLimit = (ORIGIN (RAM) + LENGTH (RAM))
                0x20041000                __StackOneTop = (ORIGIN (SCRATCH_X) + LENGTH (SCRATCH_X))
                0x20042000                __StackTop = (ORIGIN (SCRATCH_Y) + LENGTH (SCRATCH_Y))
                0x20041000                __StackOneBottom = (__StackOneTop - SIZEOF (.stack1_dummy))
                0x20041800                __StackBottom = (__StackTop - SIZEOF (.stack_dummy))
                0x20042000                PROVIDE (__stack = __StackTop)
                0x00000001                ASSERT ((__StackLimit >= __HeapLimit), region RAM overflowed)
                0x00000001                ASSERT (((__binary_info_header_end - __logical_binary_start) <= 0x100), Binary info must be in first 256 bytes of the binary)
LOAD CMakeFiles/objectExample.dir/objectExample.cpp.obj
LOAD CMakeFiles/objectExample.dir/D_/Pico_Downloads/pico-sdk/src/rp2_common/pico_stdlib/stdlib.c.obj
LOAD CMakeFiles/objectExample.dir/D_/Pico_Downloads/pico-sdk/src/rp2_common/hardware_gpio/gpio.c.obj
LOAD CMakeFiles/objectExample.dir/D_/Pico_Downloads/pico-sdk/src/rp2_common/hardware_claim/claim.c.obj
LOAD CMakeFiles/objectExample.dir/D_/Pico_Downloads/pico-sdk/src/rp2_common/hardware_sync/sync.c.obj
LOAD CMakeFiles/objectExample.dir/D_/Pico_Downloads/pico-sdk/src/rp2_common/pico_platform/platform.c.obj
LOAD CMakeFiles/objectExample.dir/D_/Pico_Downloads/pico-sdk/src/rp2_common/hardware_uart/uart.c.obj
LOAD CMakeFiles/objectExample.dir/D_/Pico_Downloads/pico-sdk/src/rp2_common/hardware_divider/divider.S.obj
LOAD CMakeFiles/objectExample.dir/D_/Pico_Downloads/pico-sdk/src/common/pico_time/time.c.obj
LOAD CMakeFiles/objectExample.dir/D_/Pico_Downloads/pico-sdk/src/common/pico_time/timeout_helper.c.obj
LOAD CMakeFiles/objectExample.dir/D_/Pico_Downloads/pico-sdk/src/rp2_common/hardware_timer/timer.c.obj
LOAD CMakeFiles/objectExample.dir/D_/Pico_Downloads/pico-sdk/src/common/pico_sync/sem.c.obj
LOAD CMakeFiles/objectExample.dir/D_/Pico_Downloads/pico-sdk/src/common/pico_sync/lock_core.c.obj
LOAD CMakeFiles/objectExample.dir/D_/Pico_Downloads/pico-sdk/src/common/pico_sync/mutex.c.obj
LOAD CMakeFiles/objectExample.dir/D_/Pico_Downloads/pico-sdk/src/common/pico_sync/critical_section.c.obj
LOAD CMakeFiles/objectExample.dir/D_/Pico_Downloads/pico-sdk/src/common/pico_util/datetime.c.obj
LOAD CMakeFiles/objectExample.dir/D_/Pico_Downloads/pico-sdk/src/common/pico_util/pheap.c.obj
LOAD CMakeFiles/objectExample.dir/D_/Pico_Downloads/pico-sdk/src/common/pico_util/queue.c.obj
LOAD CMakeFiles/objectExample.dir/D_/Pico_Downloads/pico-sdk/src/rp2_common/pico_runtime/runtime.c.obj
LOAD CMakeFiles/objectExample.dir/D_/Pico_Downloads/pico-sdk/src/rp2_common/hardware_clocks/clocks.c.obj
LOAD CMakeFiles/objectExample.dir/D_/Pico_Downloads/pico-sdk/src/rp2_common/hardware_watchdog/watchdog.c.obj
LOAD CMakeFiles/objectExample.dir/D_/Pico_Downloads/pico-sdk/src/rp2_common/hardware_xosc/xosc.c.obj
LOAD CMakeFiles/objectExample.dir/D_/Pico_Downloads/pico-sdk/src/rp2_common/hardware_pll/pll.c.obj
LOAD CMakeFiles/objectExample.dir/D_/Pico_Downloads/pico-sdk/src/rp2_common/hardware_vreg/vreg.c.obj
LOAD CMakeFiles/objectExample.dir/D_/Pico_Downloads/pico-sdk/src/rp2_common/hardware_irq/irq.c.obj
LOAD CMakeFiles/objectExample.dir/D_/Pico_Downloads/pico-sdk/src/rp2_common/hardware_irq/irq_handler_chain.S.obj
LOAD CMakeFiles/objectExample.dir/D_/Pico_Downloads/pico-sdk/src/rp2_common/pico_printf/printf.c.obj
LOAD CMakeFiles/objectExample.dir/D_/Pico_Downloads/pico-sdk/src/rp2_common/pico_bit_ops/bit_ops_aeabi.S.obj
LOAD CMakeFiles/objectExample.dir/D_/Pico_Downloads/pico-sdk/src/rp2_common/pico_bootrom/bootrom.c.obj
LOAD CMakeFiles/objectExample.dir/D_/Pico_Downloads/pico-sdk/src/rp2_common/pico_divider/divider.S.obj
LOAD CMakeFiles/objectExample.dir/D_/Pico_Downloads/pico-sdk/src/rp2_common/pico_double/double_aeabi.S.obj
LOAD CMakeFiles/objectExample.dir/D_/Pico_Downloads/pico-sdk/src/rp2_common/pico_double/double_init_rom.c.obj
LOAD CMakeFiles/objectExample.dir/D_/Pico_Downloads/pico-sdk/src/rp2_common/pico_double/double_math.c.obj
LOAD CMakeFiles/objectExample.dir/D_/Pico_Downloads/pico-sdk/src/rp2_common/pico_double/double_v1_rom_shim.S.obj
LOAD CMakeFiles/objectExample.dir/D_/Pico_Downloads/pico-sdk/src/rp2_common/pico_int64_ops/pico_int64_ops_aeabi.S.obj
LOAD CMakeFiles/objectExample.dir/D_/Pico_Downloads/pico-sdk/src/rp2_common/pico_float/float_aeabi.S.obj
LOAD CMakeFiles/objectExample.dir/D_/Pico_Downloads/pico-sdk/src/rp2_common/pico_float/float_init_rom.c.obj
LOAD CMakeFiles/objectExample.dir/D_/Pico_Downloads/pico-sdk/src/rp2_common/pico_float/float_math.c.obj
LOAD CMakeFiles/objectExample.dir/D_/Pico_Downloads/pico-sdk/src/rp2_common/pico_float/float_v1_rom_shim.S.obj
LOAD CMakeFiles/objectExample.dir/D_/Pico_Downloads/pico-sdk/src/rp2_common/pico_malloc/pico_malloc.c.obj
LOAD CMakeFiles/objectExample.dir/D_/Pico_Downloads/pico-sdk/src/rp2_common/pico_mem_ops/mem_ops_aeabi.S.obj
LOAD CMakeFiles/objectExample.dir/D_/Pico_Downloads/pico-sdk/src/rp2_common/pico_standard_link/crt0.S.obj
LOAD CMakeFiles/objectExample.dir/D_/Pico_Downloads/pico-sdk/src/rp2_common/pico_standard_link/new_delete.cpp.obj
LOAD CMakeFiles/objectExample.dir/D_/Pico_Downloads/pico-sdk/src/rp2_common/pico_standard_link/binary_info.c.obj
LOAD CMakeFiles/objectExample.dir/D_/Pico_Downloads/pico-sdk/src/rp2_common/pico_stdio/stdio.c.obj
LOAD CMakeFiles/objectExample.dir/D_/Pico_Downloads/pico-sdk/src/rp2_common/pico_stdio_usb/stdio_usb.c.obj
LOAD CMakeFiles/objectExample.dir/D_/Pico_Downloads/pico-sdk/src/rp2_common/pico_stdio_usb/stdio_usb_descriptors.c.obj
LOAD CMakeFiles/objectExample.dir/D_/Pico_Downloads/pico-sdk/lib/tinyusb/src/portable/raspberrypi/rp2040/dcd_rp2040.c.obj
LOAD CMakeFiles/objectExample.dir/D_/Pico_Downloads/pico-sdk/lib/tinyusb/src/portable/raspberrypi/rp2040/rp2040_usb.c.obj
LOAD CMakeFiles/objectExample.dir/D_/Pico_Downloads/pico-sdk/lib/tinyusb/src/device/usbd.c.obj
LOAD CMakeFiles/objectExample.dir/D_/Pico_Downloads/pico-sdk/lib/tinyusb/src/device/usbd_control.c.obj
LOAD CMakeFiles/objectExample.dir/D_/Pico_Downloads/pico-sdk/lib/tinyusb/src/class/audio/audio_device.c.obj
LOAD CMakeFiles/objectExample.dir/D_/Pico_Downloads/pico-sdk/lib/tinyusb/src/class/cdc/cdc_device.c.obj
LOAD CMakeFiles/objectExample.dir/D_/Pico_Downloads/pico-sdk/lib/tinyusb/src/class/dfu/dfu_rt_device.c.obj
LOAD CMakeFiles/objectExample.dir/D_/Pico_Downloads/pico-sdk/lib/tinyusb/src/class/hid/hid_device.c.obj
LOAD CMakeFiles/objectExample.dir/D_/Pico_Downloads/pico-sdk/lib/tinyusb/src/class/midi/midi_device.c.obj
LOAD CMakeFiles/objectExample.dir/D_/Pico_Downloads/pico-sdk/lib/tinyusb/src/class/msc/msc_device.c.obj
LOAD CMakeFiles/objectExample.dir/D_/Pico_Downloads/pico-sdk/lib/tinyusb/src/class/net/net_device.c.obj
LOAD CMakeFiles/objectExample.dir/D_/Pico_Downloads/pico-sdk/lib/tinyusb/src/class/usbtmc/usbtmc_device.c.obj
LOAD CMakeFiles/objectExample.dir/D_/Pico_Downloads/pico-sdk/lib/tinyusb/src/class/vendor/vendor_device.c.obj
LOAD CMakeFiles/objectExample.dir/D_/Pico_Downloads/pico-sdk/lib/tinyusb/src/tusb.c.obj
LOAD CMakeFiles/objectExample.dir/D_/Pico_Downloads/pico-sdk/lib/tinyusb/src/common/tusb_fifo.c.obj
LOAD CMakeFiles/objectExample.dir/D_/Pico_Downloads/pico-sdk/src/rp2_common/pico_fix/rp2040_usb_device_enumeration/rp2040_usb_device_enumeration.c.obj
LOAD ..\ultrasonic\libpico_ultrasonic_object.a
LOAD C:\Users\tfkbr\AppData\Local\Temp\ccU7FSFv.o
LOAD c:/progra~2/gnuarm~1/102020~1/bin/../lib/gcc/arm-none-eabi/10.2.1/../../../../arm-none-eabi/lib/thumb/v6-m/nofp\libstdc++.a
LOAD c:/progra~2/gnuarm~1/102020~1/bin/../lib/gcc/arm-none-eabi/10.2.1/../../../../arm-none-eabi/lib/thumb/v6-m/nofp\libm.a
START GROUP
LOAD c:/progra~2/gnuarm~1/102020~1/bin/../lib/gcc/arm-none-eabi/10.2.1/thumb/v6-m/nofp\libgcc.a
LOAD c:/progra~2/gnuarm~1/102020~1/bin/../lib/gcc/arm-none-eabi/10.2.1/../../../../arm-none-eabi/lib/thumb/v6-m/nofp\libg.a
LOAD c:/progra~2/gnuarm~1/102020~1/bin/../lib/gcc/arm-none-eabi/10.2.1/../../../../arm-none-eabi/lib/thumb/v6-m/nofp\libc.a
END GROUP
START GROUP
LOAD c:/progra~2/gnuarm~1/102020~1/bin/../lib/gcc/arm-none-eabi/10.2.1/thumb/v6-m/nofp\libgcc.a
LOAD c:/progra~2/gnuarm~1/102020~1/bin/../lib/gcc/arm-none-eabi/10.2.1/../../../../arm-none-eabi/lib/thumb/v6-m/nofp\libc.a
LOAD c:/progra~2/gnuarm~1/102020~1/bin/../lib/gcc/arm-none-eabi/10.2.1/../../../../arm-none-eabi/lib/thumb/v6-m/nofp\libnosys.a
END GROUP
LOAD c:/progra~2/gnuarm~1/102020~1/bin/../lib/gcc/arm-none-eabi/10.2.1/thumb/v6-m/nofp/crtend.o
LOAD c:/progra~2/gnuarm~1/102020~1/bin/../lib/gcc/arm-none-eabi/10.2.1/thumb/v6-m/nofp/crtn.o
OUTPUT(objectExample.elf elf32-littlearm)
LOAD linker stubs

.ARM.attributes
                0x00000000       0x28
 .ARM.attributes
                0x00000000       0x1e c:/progra~2/gnuarm~1/102020~1/bin/../lib/gcc/arm-none-eabi/10.2.1/thumb/v6-m/nofp/crti.o
 .ARM.attributes
                0x0000001e       0x2c c:/progra~2/gnuarm~1/102020~1/bin/../lib/gcc/arm-none-eabi/10.2.1/thumb/v6-m/nofp/crtbegin.o
 .ARM.attributes
                0x0000004a       0x2b CMakeFiles/objectExample.dir/objectExample.cpp.obj
 .ARM.attributes
                0x00000075       0x2b CMakeFiles/objectExample.dir/D_/Pico_Downloads/pico-sdk/src/rp2_common/hardware_gpio/gpio.c.obj
 .ARM.attributes
                0x000000a0       0x2b CMakeFiles/objectExample.dir/D_/Pico_Downloads/pico-sdk/src/rp2_common/hardware_claim/claim.c.obj
 .ARM.attributes
                0x000000cb       0x2b CMakeFiles/objectExample.dir/D_/Pico_Downloads/pico-sdk/src/rp2_common/hardware_sync/sync.c.obj
 .ARM.attributes
                0x000000f6       0x2b CMakeFiles/objectExample.dir/D_/Pico_Downloads/pico-sdk/src/rp2_common/pico_platform/platform.c.obj
 .ARM.attributes
                0x00000121       0x2b CMakeFiles/objectExample.dir/D_/Pico_Downloads/pico-sdk/src/common/pico_time/time.c.obj
 .ARM.attributes
                0x0000014c       0x2b CMakeFiles/objectExample.dir/D_/Pico_Downloads/pico-sdk/src/rp2_common/hardware_timer/timer.c.obj
 .ARM.attributes
                0x00000177       0x2b CMakeFiles/objectExample.dir/D_/Pico_Downloads/pico-sdk/src/common/pico_sync/lock_core.c.obj
 .ARM.attributes
                0x000001a2       0x2b CMakeFiles/objectExample.dir/D_/Pico_Downloads/pico-sdk/src/common/pico_sync/mutex.c.obj
 .ARM.attributes
                0x000001cd       0x2b CMakeFiles/objectExample.dir/D_/Pico_Downloads/pico-sdk/src/common/pico_sync/critical_section.c.obj
 .ARM.attributes
                0x000001f8       0x2b CMakeFiles/objectExample.dir/D_/Pico_Downloads/pico-sdk/src/common/pico_util/pheap.c.obj
 .ARM.attributes
                0x00000223       0x2b CMakeFiles/objectExample.dir/D_/Pico_Downloads/pico-sdk/src/rp2_common/pico_runtime/runtime.c.obj
 .ARM.attributes
                0x0000024e       0x2b CMakeFiles/objectExample.dir/D_/Pico_Downloads/pico-sdk/src/rp2_common/hardware_clocks/clocks.c.obj
 .ARM.attributes
                0x00000279       0x2b CMakeFiles/objectExample.dir/D_/Pico_Downloads/pico-sdk/src/rp2_common/hardware_watchdog/watchdog.c.obj
 .ARM.attributes
                0x000002a4       0x2b CMakeFiles/objectExample.dir/D_/Pico_Downloads/pico-sdk/src/rp2_common/hardware_xosc/xosc.c.obj
 .ARM.attributes
                0x000002cf       0x2b CMakeFiles/objectExample.dir/D_/Pico_Downloads/pico-sdk/src/rp2_common/hardware_pll/pll.c.obj
 .ARM.attributes
                0x000002fa       0x2b CMakeFiles/objectExample.dir/D_/Pico_Downloads/pico-sdk/src/rp2_common/hardware_irq/irq.c.obj
 .ARM.attributes
                0x00000325       0x22 CMakeFiles/objectExample.dir/D_/Pico_Downloads/pico-sdk/src/rp2_common/hardware_irq/irq_handler_chain.S.obj
 .ARM.attributes
                0x00000347       0x2b CMakeFiles/objectExample.dir/D_/Pico_Downloads/pico-sdk/src/rp2_common/pico_printf/printf.c.obj
 .ARM.attributes
                0x00000372       0x22 CMakeFiles/objectExample.dir/D_/Pico_Downloads/pico-sdk/src/rp2_common/pico_bit_ops/bit_ops_aeabi.S.obj
 .ARM.attributes
                0x00000394       0x2b CMakeFiles/objectExample.dir/D_/Pico_Downloads/pico-sdk/src/rp2_common/pico_bootrom/bootrom.c.obj
 .ARM.attributes
                0x000003bf       0x22 CMakeFiles/objectExample.dir/D_/Pico_Downloads/pico-sdk/src/rp2_common/pico_divider/divider.S.obj
 .ARM.attributes
                0x000003e1       0x22 CMakeFiles/objectExample.dir/D_/Pico_Downloads/pico-sdk/src/rp2_common/pico_double/double_aeabi.S.obj
 .ARM.attributes
                0x00000403       0x2b CMakeFiles/objectExample.dir/D_/Pico_Downloads/pico-sdk/src/rp2_common/pico_double/double_init_rom.c.obj
 .ARM.attributes
                0x0000042e       0x22 CMakeFiles/objectExample.dir/D_/Pico_Downloads/pico-sdk/src/rp2_common/pico_double/double_v1_rom_shim.S.obj
 .ARM.attributes
                0x00000450       0x22 CMakeFiles/objectExample.dir/D_/Pico_Downloads/pico-sdk/src/rp2_common/pico_int64_ops/pico_int64_ops_aeabi.S.obj
 .ARM.attributes
                0x00000472       0x22 CMakeFiles/objectExample.dir/D_/Pico_Downloads/pico-sdk/src/rp2_common/pico_float/float_aeabi.S.obj
 .ARM.attributes
                0x00000494       0x2b CMakeFiles/objectExample.dir/D_/Pico_Downloads/pico-sdk/src/rp2_common/pico_float/float_init_rom.c.obj
 .ARM.attributes
                0x000004bf       0x22 CMakeFiles/objectExample.dir/D_/Pico_Downloads/pico-sdk/src/rp2_common/pico_float/float_v1_rom_shim.S.obj
 .ARM.attributes
                0x000004e1       0x2b CMakeFiles/objectExample.dir/D_/Pico_Downloads/pico-sdk/src/rp2_common/pico_malloc/pico_malloc.c.obj
 .ARM.attributes
                0x0000050c       0x22 CMakeFiles/objectExample.dir/D_/Pico_Downloads/pico-sdk/src/rp2_common/pico_mem_ops/mem_ops_aeabi.S.obj
 .ARM.attributes
                0x0000052e       0x22 CMakeFiles/objectExample.dir/D_/Pico_Downloads/pico-sdk/src/rp2_common/pico_standard_link/crt0.S.obj
 .ARM.attributes
                0x00000550       0x32 CMakeFiles/objectExample.dir/D_/Pico_Downloads/pico-sdk/src/rp2_common/pico_standard_link/binary_info.c.obj
 .ARM.attributes
                0x00000582       0x2b CMakeFiles/objectExample.dir/D_/Pico_Downloads/pico-sdk/src/rp2_common/pico_stdio/stdio.c.obj
 .ARM.attributes
                0x000005ad       0x2b CMakeFiles/objectExample.dir/D_/Pico_Downloads/pico-sdk/src/rp2_common/pico_stdio_usb/stdio_usb.c.obj
 .ARM.attributes
                0x000005d8       0x2b CMakeFiles/objectExample.dir/D_/Pico_Downloads/pico-sdk/src/rp2_common/pico_stdio_usb/stdio_usb_descriptors.c.obj
 .ARM.attributes
                0x00000603       0x2b CMakeFiles/objectExample.dir/D_/Pico_Downloads/pico-sdk/lib/tinyusb/src/portable/raspberrypi/rp2040/dcd_rp2040.c.obj
 .ARM.attributes
                0x0000062e       0x2b CMakeFiles/objectExample.dir/D_/Pico_Downloads/pico-sdk/lib/tinyusb/src/portable/raspberrypi/rp2040/rp2040_usb.c.obj
 .ARM.attributes
                0x00000659       0x2b CMakeFiles/objectExample.dir/D_/Pico_Downloads/pico-sdk/lib/tinyusb/src/device/usbd.c.obj
 .ARM.attributes
                0x00000684       0x2b CMakeFiles/objectExample.dir/D_/Pico_Downloads/pico-sdk/lib/tinyusb/src/device/usbd_control.c.obj
 .ARM.attributes
                0x000006af       0x2b CMakeFiles/objectExample.dir/D_/Pico_Downloads/pico-sdk/lib/tinyusb/src/class/cdc/cdc_device.c.obj
 .ARM.attributes
                0x000006da       0x2b CMakeFiles/objectExample.dir/D_/Pico_Downloads/pico-sdk/lib/tinyusb/src/tusb.c.obj
 .ARM.attributes
                0x00000705       0x2b CMakeFiles/objectExample.dir/D_/Pico_Downloads/pico-sdk/lib/tinyusb/src/common/tusb_fifo.c.obj
 .ARM.attributes
                0x00000730       0x2b ..\ultrasonic\libpico_ultrasonic_object.a(ultrasonicObject.cpp.obj)
 .ARM.attributes
                0x0000075b       0x2b ..\ultrasonic\libpico_ultrasonic_object.a(ultrasonic.c.obj)
 .ARM.attributes
                0x00000786       0x22 C:\Users\tfkbr\AppData\Local\Temp\ccU7FSFv.o
 .ARM.attributes
                0x000007a8       0x1e c:/progra~2/gnuarm~1/102020~1/bin/../lib/gcc/arm-none-eabi/10.2.1/thumb/v6-m/nofp\libgcc.a(_dvmd_tls.o)
 .ARM.attributes
                0x000007c6       0x2c c:/progra~2/gnuarm~1/102020~1/bin/../lib/gcc/arm-none-eabi/10.2.1/../../../../arm-none-eabi/lib/thumb/v6-m/nofp\libg.a(lib_a-calloc.o)
 .ARM.attributes
                0x000007f2       0x2c c:/progra~2/gnuarm~1/102020~1/bin/../lib/gcc/arm-none-eabi/10.2.1/../../../../arm-none-eabi/lib/thumb/v6-m/nofp\libg.a(lib_a-callocr.o)
 .ARM.attributes
                0x0000081e       0x2c c:/progra~2/gnuarm~1/102020~1/bin/../lib/gcc/arm-none-eabi/10.2.1/../../../../arm-none-eabi/lib/thumb/v6-m/nofp\libg.a(lib_a-impure.o)
 .ARM.attributes
                0x0000084a       0x2c c:/progra~2/gnuarm~1/102020~1/bin/../lib/gcc/arm-none-eabi/10.2.1/../../../../arm-none-eabi/lib/thumb/v6-m/nofp\libg.a(lib_a-malloc.o)
 .ARM.attributes
                0x00000876       0x2c c:/progra~2/gnuarm~1/102020~1/bin/../lib/gcc/arm-none-eabi/10.2.1/../../../../arm-none-eabi/lib/thumb/v6-m/nofp\libg.a(lib_a-mallocr.o)
 .ARM.attributes
                0x000008a2       0x2c c:/progra~2/gnuarm~1/102020~1/bin/../lib/gcc/arm-none-eabi/10.2.1/../../../../arm-none-eabi/lib/thumb/v6-m/nofp\libg.a(lib_a-mlock.o)
 .ARM.attributes
                0x000008ce       0x2c c:/progra~2/gnuarm~1/102020~1/bin/../lib/gcc/arm-none-eabi/10.2.1/../../../../arm-none-eabi/lib/thumb/v6-m/nofp\libg.a(lib_a-sbrkr.o)
 .ARM.attributes
                0x000008fa       0x2c c:/progra~2/gnuarm~1/102020~1/bin/../lib/gcc/arm-none-eabi/10.2.1/../../../../arm-none-eabi/lib/thumb/v6-m/nofp\libg.a(lib_a-strlen-stub.o)
 .ARM.attributes
                0x00000926       0x2c c:/progra~2/gnuarm~1/102020~1/bin/../lib/gcc/arm-none-eabi/10.2.1/../../../../arm-none-eabi/lib/thumb/v6-m/nofp\libg.a(lib_a-freer.o)
 .ARM.attributes
                0x00000952       0x2c c:/progra~2/gnuarm~1/102020~1/bin/../lib/gcc/arm-none-eabi/10.2.1/../../../../arm-none-eabi/lib/thumb/v6-m/nofp\libg.a(lib_a-lock.o)
 .ARM.attributes
                0x0000097e       0x2c c:/progra~2/gnuarm~1/102020~1/bin/../lib/gcc/arm-none-eabi/10.2.1/../../../../arm-none-eabi/lib/thumb/v6-m/nofp\libg.a(lib_a-reent.o)

.comment        0x00000000       0x4d
 .comment       0x00000000       0x4d CMakeFiles/objectExample.dir/objectExample.cpp.obj
                                 0x4e (size before relaxing)
 .comment       0x0000004d       0x4e CMakeFiles/objectExample.dir/D_/Pico_Downloads/pico-sdk/src/rp2_common/hardware_gpio/gpio.c.obj
 .comment       0x0000004d       0x4e CMakeFiles/objectExample.dir/D_/Pico_Downloads/pico-sdk/src/rp2_common/hardware_claim/claim.c.obj
 .comment       0x0000004d       0x4e CMakeFiles/objectExample.dir/D_/Pico_Downloads/pico-sdk/src/rp2_common/hardware_sync/sync.c.obj
 .comment       0x0000004d       0x4e CMakeFiles/objectExample.dir/D_/Pico_Downloads/pico-sdk/src/rp2_common/pico_platform/platform.c.obj
 .comment       0x0000004d       0x4e CMakeFiles/objectExample.dir/D_/Pico_Downloads/pico-sdk/src/common/pico_time/time.c.obj
 .comment       0x0000004d       0x4e CMakeFiles/objectExample.dir/D_/Pico_Downloads/pico-sdk/src/rp2_common/hardware_timer/timer.c.obj
 .comment       0x0000004d       0x4e CMakeFiles/objectExample.dir/D_/Pico_Downloads/pico-sdk/src/common/pico_sync/lock_core.c.obj
 .comment       0x0000004d       0x4e CMakeFiles/objectExample.dir/D_/Pico_Downloads/pico-sdk/src/common/pico_sync/mutex.c.obj
 .comment       0x0000004d       0x4e CMakeFiles/objectExample.dir/D_/Pico_Downloads/pico-sdk/src/common/pico_sync/critical_section.c.obj
 .comment       0x0000004d       0x4e CMakeFiles/objectExample.dir/D_/Pico_Downloads/pico-sdk/src/common/pico_util/pheap.c.obj
 .comment       0x0000004d       0x4e CMakeFiles/objectExample.dir/D_/Pico_Downloads/pico-sdk/src/rp2_common/pico_runtime/runtime.c.obj
 .comment       0x0000004d       0x4e CMakeFiles/objectExample.dir/D_/Pico_Downloads/pico-sdk/src/rp2_common/hardware_clocks/clocks.c.obj
 .comment       0x0000004d       0x4e CMakeFiles/objectExample.dir/D_/Pico_Downloads/pico-sdk/src/rp2_common/hardware_watchdog/watchdog.c.obj
 .comment       0x0000004d       0x4e CMakeFiles/objectExample.dir/D_/Pico_Downloads/pico-sdk/src/rp2_common/hardware_xosc/xosc.c.obj
 .comment       0x0000004d       0x4e CMakeFiles/objectExample.dir/D_/Pico_Downloads/pico-sdk/src/rp2_common/hardware_pll/pll.c.obj
 .comment       0x0000004d       0x4e CMakeFiles/objectExample.dir/D_/Pico_Downloads/pico-sdk/src/rp2_common/hardware_irq/irq.c.obj
 .comment       0x0000004d       0x4e CMakeFiles/objectExample.dir/D_/Pico_Downloads/pico-sdk/src/rp2_common/pico_printf/printf.c.obj
 .comment       0x0000004d       0x4e CMakeFiles/objectExample.dir/D_/Pico_Downloads/pico-sdk/src/rp2_common/pico_bootrom/bootrom.c.obj
 .comment       0x0000004d       0x4e CMakeFiles/objectExample.dir/D_/Pico_Downloads/pico-sdk/src/rp2_common/pico_double/double_init_rom.c.obj
 .comment       0x0000004d       0x4e CMakeFiles/objectExample.dir/D_/Pico_Downloads/pico-sdk/src/rp2_common/pico_float/float_init_rom.c.obj
 .comment       0x0000004d       0x4e CMakeFiles/objectExample.dir/D_/Pico_Downloads/pico-sdk/src/rp2_common/pico_malloc/pico_malloc.c.obj
 .comment       0x0000004d       0x4e CMakeFiles/objectExample.dir/D_/Pico_Downloads/pico-sdk/src/rp2_common/pico_standard_link/binary_info.c.obj
 .comment       0x0000004d       0x4e CMakeFiles/objectExample.dir/D_/Pico_Downloads/pico-sdk/src/rp2_common/pico_stdio/stdio.c.obj
 .comment       0x0000004d       0x4e CMakeFiles/objectExample.dir/D_/Pico_Downloads/pico-sdk/src/rp2_common/pico_stdio_usb/stdio_usb.c.obj
 .comment       0x0000004d       0x4e CMakeFiles/objectExample.dir/D_/Pico_Downloads/pico-sdk/src/rp2_common/pico_stdio_usb/stdio_usb_descriptors.c.obj
 .comment       0x0000004d       0x4e CMakeFiles/objectExample.dir/D_/Pico_Downloads/pico-sdk/lib/tinyusb/src/portable/raspberrypi/rp2040/dcd_rp2040.c.obj
 .comment       0x0000004d       0x4e CMakeFiles/objectExample.dir/D_/Pico_Downloads/pico-sdk/lib/tinyusb/src/portable/raspberrypi/rp2040/rp2040_usb.c.obj
 .comment       0x0000004d       0x4e CMakeFiles/objectExample.dir/D_/Pico_Downloads/pico-sdk/lib/tinyusb/src/device/usbd.c.obj
 .comment       0x0000004d       0x4e CMakeFiles/objectExample.dir/D_/Pico_Downloads/pico-sdk/lib/tinyusb/src/device/usbd_control.c.obj
 .comment       0x0000004d       0x4e CMakeFiles/objectExample.dir/D_/Pico_Downloads/pico-sdk/lib/tinyusb/src/class/cdc/cdc_device.c.obj
 .comment       0x0000004d       0x4e CMakeFiles/objectExample.dir/D_/Pico_Downloads/pico-sdk/lib/tinyusb/src/tusb.c.obj
 .comment       0x0000004d       0x4e CMakeFiles/objectExample.dir/D_/Pico_Downloads/pico-sdk/lib/tinyusb/src/common/tusb_fifo.c.obj
 .comment       0x0000004d       0x4e ..\ultrasonic\libpico_ultrasonic_object.a(ultrasonicObject.cpp.obj)
 .comment       0x0000004d       0x4e ..\ultrasonic\libpico_ultrasonic_object.a(ultrasonic.c.obj)

.debug_info     0x00000000    0x1c2fd
 .debug_info    0x00000000      0x286 CMakeFiles/objectExample.dir/objectExample.cpp.obj
 .debug_info    0x00000286     0x1141 CMakeFiles/objectExample.dir/D_/Pico_Downloads/pico-sdk/src/rp2_common/hardware_gpio/gpio.c.obj
 .debug_info    0x000013c7      0x620 CMakeFiles/objectExample.dir/D_/Pico_Downloads/pico-sdk/src/rp2_common/hardware_claim/claim.c.obj
 .debug_info    0x000019e7      0x4a5 CMakeFiles/objectExample.dir/D_/Pico_Downloads/pico-sdk/src/rp2_common/hardware_sync/sync.c.obj
 .debug_info    0x00001e8c      0x1d5 CMakeFiles/objectExample.dir/D_/Pico_Downloads/pico-sdk/src/rp2_common/pico_platform/platform.c.obj
 .debug_info    0x00002061     0x3349 CMakeFiles/objectExample.dir/D_/Pico_Downloads/pico-sdk/src/common/pico_time/time.c.obj
 .debug_info    0x000053aa      0xf9d CMakeFiles/objectExample.dir/D_/Pico_Downloads/pico-sdk/src/rp2_common/hardware_timer/timer.c.obj
 .debug_info    0x00006347      0x1c5 CMakeFiles/objectExample.dir/D_/Pico_Downloads/pico-sdk/src/common/pico_sync/lock_core.c.obj
 .debug_info    0x0000650c      0xd50 CMakeFiles/objectExample.dir/D_/Pico_Downloads/pico-sdk/src/common/pico_sync/mutex.c.obj
 .debug_info    0x0000725c      0x292 CMakeFiles/objectExample.dir/D_/Pico_Downloads/pico-sdk/src/common/pico_sync/critical_section.c.obj
 .debug_info    0x000074ee     0x1164 CMakeFiles/objectExample.dir/D_/Pico_Downloads/pico-sdk/src/common/pico_util/pheap.c.obj
 .debug_info    0x00008652      0x986 CMakeFiles/objectExample.dir/D_/Pico_Downloads/pico-sdk/src/rp2_common/pico_runtime/runtime.c.obj
 .debug_info    0x00008fd8     0x1068 CMakeFiles/objectExample.dir/D_/Pico_Downloads/pico-sdk/src/rp2_common/hardware_clocks/clocks.c.obj
 .debug_info    0x0000a040      0x49c CMakeFiles/objectExample.dir/D_/Pico_Downloads/pico-sdk/src/rp2_common/hardware_watchdog/watchdog.c.obj
 .debug_info    0x0000a4dc      0x214 CMakeFiles/objectExample.dir/D_/Pico_Downloads/pico-sdk/src/rp2_common/hardware_xosc/xosc.c.obj
 .debug_info    0x0000a6f0      0x3c1 CMakeFiles/objectExample.dir/D_/Pico_Downloads/pico-sdk/src/rp2_common/hardware_pll/pll.c.obj
 .debug_info    0x0000aab1     0x1807 CMakeFiles/objectExample.dir/D_/Pico_Downloads/pico-sdk/src/rp2_common/hardware_irq/irq.c.obj
 .debug_info    0x0000c2b8       0x26 CMakeFiles/objectExample.dir/D_/Pico_Downloads/pico-sdk/src/rp2_common/hardware_irq/irq_handler_chain.S.obj
 .debug_info    0x0000c2de     0x1a32 CMakeFiles/objectExample.dir/D_/Pico_Downloads/pico-sdk/src/rp2_common/pico_printf/printf.c.obj
 .debug_info    0x0000dd10       0x22 CMakeFiles/objectExample.dir/D_/Pico_Downloads/pico-sdk/src/rp2_common/pico_bit_ops/bit_ops_aeabi.S.obj
 .debug_info    0x0000dd32      0x231 CMakeFiles/objectExample.dir/D_/Pico_Downloads/pico-sdk/src/rp2_common/pico_bootrom/bootrom.c.obj
 .debug_info    0x0000df63       0x22 CMakeFiles/objectExample.dir/D_/Pico_Downloads/pico-sdk/src/rp2_common/pico_divider/divider.S.obj
 .debug_info    0x0000df85       0x22 CMakeFiles/objectExample.dir/D_/Pico_Downloads/pico-sdk/src/rp2_common/pico_double/double_aeabi.S.obj
 .debug_info    0x0000dfa7      0x2a0 CMakeFiles/objectExample.dir/D_/Pico_Downloads/pico-sdk/src/rp2_common/pico_double/double_init_rom.c.obj
 .debug_info    0x0000e247       0x22 CMakeFiles/objectExample.dir/D_/Pico_Downloads/pico-sdk/src/rp2_common/pico_double/double_v1_rom_shim.S.obj
 .debug_info    0x0000e269       0x26 CMakeFiles/objectExample.dir/D_/Pico_Downloads/pico-sdk/src/rp2_common/pico_int64_ops/pico_int64_ops_aeabi.S.obj
 .debug_info    0x0000e28f       0x22 CMakeFiles/objectExample.dir/D_/Pico_Downloads/pico-sdk/src/rp2_common/pico_float/float_aeabi.S.obj
 .debug_info    0x0000e2b1      0x2ef CMakeFiles/objectExample.dir/D_/Pico_Downloads/pico-sdk/src/rp2_common/pico_float/float_init_rom.c.obj
 .debug_info    0x0000e5a0       0x22 CMakeFiles/objectExample.dir/D_/Pico_Downloads/pico-sdk/src/rp2_common/pico_float/float_v1_rom_shim.S.obj
 .debug_info    0x0000e5c2      0x1e7 CMakeFiles/objectExample.dir/D_/Pico_Downloads/pico-sdk/src/rp2_common/pico_malloc/pico_malloc.c.obj
 .debug_info    0x0000e7a9       0x22 CMakeFiles/objectExample.dir/D_/Pico_Downloads/pico-sdk/src/rp2_common/pico_mem_ops/mem_ops_aeabi.S.obj
 .debug_info    0x0000e7cb       0x22 CMakeFiles/objectExample.dir/D_/Pico_Downloads/pico-sdk/src/rp2_common/pico_standard_link/crt0.S.obj
 .debug_info    0x0000e7ed      0x2f6 CMakeFiles/objectExample.dir/D_/Pico_Downloads/pico-sdk/src/rp2_common/pico_standard_link/binary_info.c.obj
 .debug_info    0x0000eae3     0x1064 CMakeFiles/objectExample.dir/D_/Pico_Downloads/pico-sdk/src/rp2_common/pico_stdio/stdio.c.obj
 .debug_info    0x0000fb47      0xe0d CMakeFiles/objectExample.dir/D_/Pico_Downloads/pico-sdk/src/rp2_common/pico_stdio_usb/stdio_usb.c.obj
 .debug_info    0x00010954      0x618 CMakeFiles/objectExample.dir/D_/Pico_Downloads/pico-sdk/src/rp2_common/pico_stdio_usb/stdio_usb_descriptors.c.obj
 .debug_info    0x00010f6c     0x1a31 CMakeFiles/objectExample.dir/D_/Pico_Downloads/pico-sdk/lib/tinyusb/src/portable/raspberrypi/rp2040/dcd_rp2040.c.obj
 .debug_info    0x0001299d      0xca4 CMakeFiles/objectExample.dir/D_/Pico_Downloads/pico-sdk/lib/tinyusb/src/portable/raspberrypi/rp2040/rp2040_usb.c.obj
 .debug_info    0x00013641     0x3fac CMakeFiles/objectExample.dir/D_/Pico_Downloads/pico-sdk/lib/tinyusb/src/device/usbd.c.obj
 .debug_info    0x000175ed      0x9ea CMakeFiles/objectExample.dir/D_/Pico_Downloads/pico-sdk/lib/tinyusb/src/device/usbd_control.c.obj
 .debug_info    0x00017fd7     0x1b30 CMakeFiles/objectExample.dir/D_/Pico_Downloads/pico-sdk/lib/tinyusb/src/class/cdc/cdc_device.c.obj
 .debug_info    0x00019b07      0x511 CMakeFiles/objectExample.dir/D_/Pico_Downloads/pico-sdk/lib/tinyusb/src/tusb.c.obj
 .debug_info    0x0001a018     0x166f CMakeFiles/objectExample.dir/D_/Pico_Downloads/pico-sdk/lib/tinyusb/src/common/tusb_fifo.c.obj
 .debug_info    0x0001b687      0x1df ..\ultrasonic\libpico_ultrasonic_object.a(ultrasonicObject.cpp.obj)
 .debug_info    0x0001b866      0xa97 ..\ultrasonic\libpico_ultrasonic_object.a(ultrasonic.c.obj)

.debug_abbrev   0x00000000     0x5beb
 .debug_abbrev  0x00000000      0x17b CMakeFiles/objectExample.dir/objectExample.cpp.obj
 .debug_abbrev  0x0000017b      0x309 CMakeFiles/objectExample.dir/D_/Pico_Downloads/pico-sdk/src/rp2_common/hardware_gpio/gpio.c.obj
 .debug_abbrev  0x00000484      0x276 CMakeFiles/objectExample.dir/D_/Pico_Downloads/pico-sdk/src/rp2_common/hardware_claim/claim.c.obj
 .debug_abbrev  0x000006fa      0x212 CMakeFiles/objectExample.dir/D_/Pico_Downloads/pico-sdk/src/rp2_common/hardware_sync/sync.c.obj
 .debug_abbrev  0x0000090c       0xe7 CMakeFiles/objectExample.dir/D_/Pico_Downloads/pico-sdk/src/rp2_common/pico_platform/platform.c.obj
 .debug_abbrev  0x000009f3      0x54b CMakeFiles/objectExample.dir/D_/Pico_Downloads/pico-sdk/src/common/pico_time/time.c.obj
 .debug_abbrev  0x00000f3e      0x34c CMakeFiles/objectExample.dir/D_/Pico_Downloads/pico-sdk/src/rp2_common/hardware_timer/timer.c.obj
 .debug_abbrev  0x0000128a      0x133 CMakeFiles/objectExample.dir/D_/Pico_Downloads/pico-sdk/src/common/pico_sync/lock_core.c.obj
 .debug_abbrev  0x000013bd      0x32b CMakeFiles/objectExample.dir/D_/Pico_Downloads/pico-sdk/src/common/pico_sync/mutex.c.obj
 .debug_abbrev  0x000016e8      0x199 CMakeFiles/objectExample.dir/D_/Pico_Downloads/pico-sdk/src/common/pico_sync/critical_section.c.obj
 .debug_abbrev  0x00001881      0x297 CMakeFiles/objectExample.dir/D_/Pico_Downloads/pico-sdk/src/common/pico_util/pheap.c.obj
 .debug_abbrev  0x00001b18      0x348 CMakeFiles/objectExample.dir/D_/Pico_Downloads/pico-sdk/src/rp2_common/pico_runtime/runtime.c.obj
 .debug_abbrev  0x00001e60      0x386 CMakeFiles/objectExample.dir/D_/Pico_Downloads/pico-sdk/src/rp2_common/hardware_clocks/clocks.c.obj
 .debug_abbrev  0x000021e6      0x1b1 CMakeFiles/objectExample.dir/D_/Pico_Downloads/pico-sdk/src/rp2_common/hardware_watchdog/watchdog.c.obj
 .debug_abbrev  0x00002397      0x12c CMakeFiles/objectExample.dir/D_/Pico_Downloads/pico-sdk/src/rp2_common/hardware_xosc/xosc.c.obj
 .debug_abbrev  0x000024c3      0x1bc CMakeFiles/objectExample.dir/D_/Pico_Downloads/pico-sdk/src/rp2_common/hardware_pll/pll.c.obj
 .debug_abbrev  0x0000267f      0x494 CMakeFiles/objectExample.dir/D_/Pico_Downloads/pico-sdk/src/rp2_common/hardware_irq/irq.c.obj
 .debug_abbrev  0x00002b13       0x14 CMakeFiles/objectExample.dir/D_/Pico_Downloads/pico-sdk/src/rp2_common/hardware_irq/irq_handler_chain.S.obj
 .debug_abbrev  0x00002b27      0x384 CMakeFiles/objectExample.dir/D_/Pico_Downloads/pico-sdk/src/rp2_common/pico_printf/printf.c.obj
 .debug_abbrev  0x00002eab       0x12 CMakeFiles/objectExample.dir/D_/Pico_Downloads/pico-sdk/src/rp2_common/pico_bit_ops/bit_ops_aeabi.S.obj
 .debug_abbrev  0x00002ebd       0xf8 CMakeFiles/objectExample.dir/D_/Pico_Downloads/pico-sdk/src/rp2_common/pico_bootrom/bootrom.c.obj
 .debug_abbrev  0x00002fb5       0x12 CMakeFiles/objectExample.dir/D_/Pico_Downloads/pico-sdk/src/rp2_common/pico_divider/divider.S.obj
 .debug_abbrev  0x00002fc7       0x12 CMakeFiles/objectExample.dir/D_/Pico_Downloads/pico-sdk/src/rp2_common/pico_double/double_aeabi.S.obj
 .debug_abbrev  0x00002fd9      0x162 CMakeFiles/objectExample.dir/D_/Pico_Downloads/pico-sdk/src/rp2_common/pico_double/double_init_rom.c.obj
 .debug_abbrev  0x0000313b       0x12 CMakeFiles/objectExample.dir/D_/Pico_Downloads/pico-sdk/src/rp2_common/pico_double/double_v1_rom_shim.S.obj
 .debug_abbrev  0x0000314d       0x14 CMakeFiles/objectExample.dir/D_/Pico_Downloads/pico-sdk/src/rp2_common/pico_int64_ops/pico_int64_ops_aeabi.S.obj
 .debug_abbrev  0x00003161       0x12 CMakeFiles/objectExample.dir/D_/Pico_Downloads/pico-sdk/src/rp2_common/pico_float/float_aeabi.S.obj
 .debug_abbrev  0x00003173      0x17a CMakeFiles/objectExample.dir/D_/Pico_Downloads/pico-sdk/src/rp2_common/pico_float/float_init_rom.c.obj
 .debug_abbrev  0x000032ed       0x12 CMakeFiles/objectExample.dir/D_/Pico_Downloads/pico-sdk/src/rp2_common/pico_float/float_v1_rom_shim.S.obj
 .debug_abbrev  0x000032ff      0x111 CMakeFiles/objectExample.dir/D_/Pico_Downloads/pico-sdk/src/rp2_common/pico_malloc/pico_malloc.c.obj
 .debug_abbrev  0x00003410       0x12 CMakeFiles/objectExample.dir/D_/Pico_Downloads/pico-sdk/src/rp2_common/pico_mem_ops/mem_ops_aeabi.S.obj
 .debug_abbrev  0x00003422       0x12 CMakeFiles/objectExample.dir/D_/Pico_Downloads/pico-sdk/src/rp2_common/pico_standard_link/crt0.S.obj
 .debug_abbrev  0x00003434       0xad CMakeFiles/objectExample.dir/D_/Pico_Downloads/pico-sdk/src/rp2_common/pico_standard_link/binary_info.c.obj
 .debug_abbrev  0x000034e1      0x4f4 CMakeFiles/objectExample.dir/D_/Pico_Downloads/pico-sdk/src/rp2_common/pico_stdio/stdio.c.obj
 .debug_abbrev  0x000039d5      0x3df CMakeFiles/objectExample.dir/D_/Pico_Downloads/pico-sdk/src/rp2_common/pico_stdio_usb/stdio_usb.c.obj
 .debug_abbrev  0x00003db4      0x122 CMakeFiles/objectExample.dir/D_/Pico_Downloads/pico-sdk/src/rp2_common/pico_stdio_usb/stdio_usb_descriptors.c.obj
 .debug_abbrev  0x00003ed6      0x3fa CMakeFiles/objectExample.dir/D_/Pico_Downloads/pico-sdk/lib/tinyusb/src/portable/raspberrypi/rp2040/dcd_rp2040.c.obj
 .debug_abbrev  0x000042d0      0x31a CMakeFiles/objectExample.dir/D_/Pico_Downloads/pico-sdk/lib/tinyusb/src/portable/raspberrypi/rp2040/rp2040_usb.c.obj
 .debug_abbrev  0x000045ea      0x57f CMakeFiles/objectExample.dir/D_/Pico_Downloads/pico-sdk/lib/tinyusb/src/device/usbd.c.obj
 .debug_abbrev  0x00004b69      0x303 CMakeFiles/objectExample.dir/D_/Pico_Downloads/pico-sdk/lib/tinyusb/src/device/usbd_control.c.obj
 .debug_abbrev  0x00004e6c      0x444 CMakeFiles/objectExample.dir/D_/Pico_Downloads/pico-sdk/lib/tinyusb/src/class/cdc/cdc_device.c.obj
 .debug_abbrev  0x000052b0      0x200 CMakeFiles/objectExample.dir/D_/Pico_Downloads/pico-sdk/lib/tinyusb/src/tusb.c.obj
 .debug_abbrev  0x000054b0      0x33a CMakeFiles/objectExample.dir/D_/Pico_Downloads/pico-sdk/lib/tinyusb/src/common/tusb_fifo.c.obj
 .debug_abbrev  0x000057ea      0x143 ..\ultrasonic\libpico_ultrasonic_object.a(ultrasonicObject.cpp.obj)
 .debug_abbrev  0x0000592d      0x2be ..\ultrasonic\libpico_ultrasonic_object.a(ultrasonic.c.obj)

.debug_loc      0x00000000    0x11cae
 .debug_loc     0x00000000       0x84 CMakeFiles/objectExample.dir/objectExample.cpp.obj
 .debug_loc     0x00000084      0xafe CMakeFiles/objectExample.dir/D_/Pico_Downloads/pico-sdk/src/rp2_common/hardware_gpio/gpio.c.obj
 .debug_loc     0x00000b82      0x457 CMakeFiles/objectExample.dir/D_/Pico_Downloads/pico-sdk/src/rp2_common/hardware_claim/claim.c.obj
 .debug_loc     0x00000fd9      0x1d7 CMakeFiles/objectExample.dir/D_/Pico_Downloads/pico-sdk/src/rp2_common/hardware_sync/sync.c.obj
 .debug_loc     0x000011b0       0xe9 CMakeFiles/objectExample.dir/D_/Pico_Downloads/pico-sdk/src/rp2_common/pico_platform/platform.c.obj
 .debug_loc     0x00001299     0x28f8 CMakeFiles/objectExample.dir/D_/Pico_Downloads/pico-sdk/src/common/pico_time/time.c.obj
 .debug_loc     0x00003b91      0x831 CMakeFiles/objectExample.dir/D_/Pico_Downloads/pico-sdk/src/rp2_common/hardware_timer/timer.c.obj
 .debug_loc     0x000043c2       0xa2 CMakeFiles/objectExample.dir/D_/Pico_Downloads/pico-sdk/src/common/pico_sync/lock_core.c.obj
 .debug_loc     0x00004464      0x641 CMakeFiles/objectExample.dir/D_/Pico_Downloads/pico-sdk/src/common/pico_sync/mutex.c.obj
 .debug_loc     0x00004aa5       0xc9 CMakeFiles/objectExample.dir/D_/Pico_Downloads/pico-sdk/src/common/pico_sync/critical_section.c.obj
 .debug_loc     0x00004b6e     0x13a5 CMakeFiles/objectExample.dir/D_/Pico_Downloads/pico-sdk/src/common/pico_util/pheap.c.obj
 .debug_loc     0x00005f13      0x3d7 CMakeFiles/objectExample.dir/D_/Pico_Downloads/pico-sdk/src/rp2_common/pico_runtime/runtime.c.obj
 .debug_loc     0x000062ea      0x890 CMakeFiles/objectExample.dir/D_/Pico_Downloads/pico-sdk/src/rp2_common/hardware_clocks/clocks.c.obj
 .debug_loc     0x00006b7a      0x267 CMakeFiles/objectExample.dir/D_/Pico_Downloads/pico-sdk/src/rp2_common/hardware_watchdog/watchdog.c.obj
 .debug_loc     0x00006de1       0x71 CMakeFiles/objectExample.dir/D_/Pico_Downloads/pico-sdk/src/rp2_common/hardware_xosc/xosc.c.obj
 .debug_loc     0x00006e52      0x278 CMakeFiles/objectExample.dir/D_/Pico_Downloads/pico-sdk/src/rp2_common/hardware_pll/pll.c.obj
 .debug_loc     0x000070ca     0x1240 CMakeFiles/objectExample.dir/D_/Pico_Downloads/pico-sdk/src/rp2_common/hardware_irq/irq.c.obj
 .debug_loc     0x0000830a     0x203e CMakeFiles/objectExample.dir/D_/Pico_Downloads/pico-sdk/src/rp2_common/pico_printf/printf.c.obj
 .debug_loc     0x0000a348      0x16f CMakeFiles/objectExample.dir/D_/Pico_Downloads/pico-sdk/src/rp2_common/pico_bootrom/bootrom.c.obj
 .debug_loc     0x0000a4b7       0x59 CMakeFiles/objectExample.dir/D_/Pico_Downloads/pico-sdk/src/rp2_common/pico_double/double_init_rom.c.obj
 .debug_loc     0x0000a510       0x73 CMakeFiles/objectExample.dir/D_/Pico_Downloads/pico-sdk/src/rp2_common/pico_float/float_init_rom.c.obj
 .debug_loc     0x0000a583       0xbe CMakeFiles/objectExample.dir/D_/Pico_Downloads/pico-sdk/src/rp2_common/pico_malloc/pico_malloc.c.obj
 .debug_loc     0x0000a641      0x993 CMakeFiles/objectExample.dir/D_/Pico_Downloads/pico-sdk/src/rp2_common/pico_stdio/stdio.c.obj
 .debug_loc     0x0000afd4      0x465 CMakeFiles/objectExample.dir/D_/Pico_Downloads/pico-sdk/src/rp2_common/pico_stdio_usb/stdio_usb.c.obj
 .debug_loc     0x0000b439      0x133 CMakeFiles/objectExample.dir/D_/Pico_Downloads/pico-sdk/src/rp2_common/pico_stdio_usb/stdio_usb_descriptors.c.obj
 .debug_loc     0x0000b56c      0xd88 CMakeFiles/objectExample.dir/D_/Pico_Downloads/pico-sdk/lib/tinyusb/src/portable/raspberrypi/rp2040/dcd_rp2040.c.obj
 .debug_loc     0x0000c2f4      0x583 CMakeFiles/objectExample.dir/D_/Pico_Downloads/pico-sdk/lib/tinyusb/src/portable/raspberrypi/rp2040/rp2040_usb.c.obj
 .debug_loc     0x0000c877     0x22ec CMakeFiles/objectExample.dir/D_/Pico_Downloads/pico-sdk/lib/tinyusb/src/device/usbd.c.obj
 .debug_loc     0x0000eb63      0x5b9 CMakeFiles/objectExample.dir/D_/Pico_Downloads/pico-sdk/lib/tinyusb/src/device/usbd_control.c.obj
 .debug_loc     0x0000f11c      0xf74 CMakeFiles/objectExample.dir/D_/Pico_Downloads/pico-sdk/lib/tinyusb/src/class/cdc/cdc_device.c.obj
 .debug_loc     0x00010090      0x2c7 CMakeFiles/objectExample.dir/D_/Pico_Downloads/pico-sdk/lib/tinyusb/src/tusb.c.obj
 .debug_loc     0x00010357     0x14dd CMakeFiles/objectExample.dir/D_/Pico_Downloads/pico-sdk/lib/tinyusb/src/common/tusb_fifo.c.obj
 .debug_loc     0x00011834       0xd0 ..\ultrasonic\libpico_ultrasonic_object.a(ultrasonicObject.cpp.obj)
 .debug_loc     0x00011904      0x3aa ..\ultrasonic\libpico_ultrasonic_object.a(ultrasonic.c.obj)

.debug_aranges  0x00000000     0x11d8
 .debug_aranges
                0x00000000       0x30 CMakeFiles/objectExample.dir/objectExample.cpp.obj
 .debug_aranges
                0x00000030       0xa0 CMakeFiles/objectExample.dir/D_/Pico_Downloads/pico-sdk/src/rp2_common/hardware_gpio/gpio.c.obj
 .debug_aranges
                0x000000d0       0x48 CMakeFiles/objectExample.dir/D_/Pico_Downloads/pico-sdk/src/rp2_common/hardware_claim/claim.c.obj
 .debug_aranges
                0x00000118       0x50 CMakeFiles/objectExample.dir/D_/Pico_Downloads/pico-sdk/src/rp2_common/hardware_sync/sync.c.obj
 .debug_aranges
                0x00000168       0x28 CMakeFiles/objectExample.dir/D_/Pico_Downloads/pico-sdk/src/rp2_common/pico_platform/platform.c.obj
 .debug_aranges
                0x00000190       0xc8 CMakeFiles/objectExample.dir/D_/Pico_Downloads/pico-sdk/src/common/pico_time/time.c.obj
 .debug_aranges
                0x00000258       0x68 CMakeFiles/objectExample.dir/D_/Pico_Downloads/pico-sdk/src/rp2_common/hardware_timer/timer.c.obj
 .debug_aranges
                0x000002c0       0x20 CMakeFiles/objectExample.dir/D_/Pico_Downloads/pico-sdk/src/common/pico_sync/lock_core.c.obj
 .debug_aranges
                0x000002e0       0x48 CMakeFiles/objectExample.dir/D_/Pico_Downloads/pico-sdk/src/common/pico_sync/mutex.c.obj
 .debug_aranges
                0x00000328       0x30 CMakeFiles/objectExample.dir/D_/Pico_Downloads/pico-sdk/src/common/pico_sync/critical_section.c.obj
 .debug_aranges
                0x00000358       0x70 CMakeFiles/objectExample.dir/D_/Pico_Downloads/pico-sdk/src/common/pico_util/pheap.c.obj
 .debug_aranges
                0x000003c8       0x60 CMakeFiles/objectExample.dir/D_/Pico_Downloads/pico-sdk/src/rp2_common/pico_runtime/runtime.c.obj
 .debug_aranges
                0x00000428       0x70 CMakeFiles/objectExample.dir/D_/Pico_Downloads/pico-sdk/src/rp2_common/hardware_clocks/clocks.c.obj
 .debug_aranges
                0x00000498       0x50 CMakeFiles/objectExample.dir/D_/Pico_Downloads/pico-sdk/src/rp2_common/hardware_watchdog/watchdog.c.obj
 .debug_aranges
                0x000004e8       0x30 CMakeFiles/objectExample.dir/D_/Pico_Downloads/pico-sdk/src/rp2_common/hardware_xosc/xosc.c.obj
 .debug_aranges
                0x00000518       0x28 CMakeFiles/objectExample.dir/D_/Pico_Downloads/pico-sdk/src/rp2_common/hardware_pll/pll.c.obj
 .debug_aranges
                0x00000540       0x90 CMakeFiles/objectExample.dir/D_/Pico_Downloads/pico-sdk/src/rp2_common/hardware_irq/irq.c.obj
 .debug_aranges
                0x000005d0       0x20 CMakeFiles/objectExample.dir/D_/Pico_Downloads/pico-sdk/src/rp2_common/hardware_irq/irq_handler_chain.S.obj
 .debug_aranges
                0x000005f0       0x90 CMakeFiles/objectExample.dir/D_/Pico_Downloads/pico-sdk/src/rp2_common/pico_printf/printf.c.obj
 .debug_aranges
                0x00000680       0x68 CMakeFiles/objectExample.dir/D_/Pico_Downloads/pico-sdk/src/rp2_common/pico_bit_ops/bit_ops_aeabi.S.obj
 .debug_aranges
                0x000006e8       0x30 CMakeFiles/objectExample.dir/D_/Pico_Downloads/pico-sdk/src/rp2_common/pico_bootrom/bootrom.c.obj
 .debug_aranges
                0x00000718       0x40 CMakeFiles/objectExample.dir/D_/Pico_Downloads/pico-sdk/src/rp2_common/pico_divider/divider.S.obj
 .debug_aranges
                0x00000758      0x140 CMakeFiles/objectExample.dir/D_/Pico_Downloads/pico-sdk/src/rp2_common/pico_double/double_aeabi.S.obj
 .debug_aranges
                0x00000898       0x20 CMakeFiles/objectExample.dir/D_/Pico_Downloads/pico-sdk/src/rp2_common/pico_double/double_init_rom.c.obj
 .debug_aranges
                0x000008b8       0xc8 CMakeFiles/objectExample.dir/D_/Pico_Downloads/pico-sdk/src/rp2_common/pico_double/double_v1_rom_shim.S.obj
 .debug_aranges
                0x00000980       0x20 CMakeFiles/objectExample.dir/D_/Pico_Downloads/pico-sdk/src/rp2_common/pico_int64_ops/pico_int64_ops_aeabi.S.obj
 .debug_aranges
                0x000009a0      0x130 CMakeFiles/objectExample.dir/D_/Pico_Downloads/pico-sdk/src/rp2_common/pico_float/float_aeabi.S.obj
 .debug_aranges
                0x00000ad0       0x20 CMakeFiles/objectExample.dir/D_/Pico_Downloads/pico-sdk/src/rp2_common/pico_float/float_init_rom.c.obj
 .debug_aranges
                0x00000af0       0x50 CMakeFiles/objectExample.dir/D_/Pico_Downloads/pico-sdk/src/rp2_common/pico_float/float_v1_rom_shim.S.obj
 .debug_aranges
                0x00000b40       0x30 CMakeFiles/objectExample.dir/D_/Pico_Downloads/pico-sdk/src/rp2_common/pico_malloc/pico_malloc.c.obj
 .debug_aranges
                0x00000b70       0x38 CMakeFiles/objectExample.dir/D_/Pico_Downloads/pico-sdk/src/rp2_common/pico_mem_ops/mem_ops_aeabi.S.obj
 .debug_aranges
                0x00000ba8       0x28 CMakeFiles/objectExample.dir/D_/Pico_Downloads/pico-sdk/src/rp2_common/pico_standard_link/crt0.S.obj
 .debug_aranges
                0x00000bd0       0x18 CMakeFiles/objectExample.dir/D_/Pico_Downloads/pico-sdk/src/rp2_common/pico_standard_link/binary_info.c.obj
 .debug_aranges
                0x00000be8       0xb8 CMakeFiles/objectExample.dir/D_/Pico_Downloads/pico-sdk/src/rp2_common/pico_stdio/stdio.c.obj
 .debug_aranges
                0x00000ca0       0x40 CMakeFiles/objectExample.dir/D_/Pico_Downloads/pico-sdk/src/rp2_common/pico_stdio_usb/stdio_usb.c.obj
 .debug_aranges
                0x00000ce0       0x30 CMakeFiles/objectExample.dir/D_/Pico_Downloads/pico-sdk/src/rp2_common/pico_stdio_usb/stdio_usb_descriptors.c.obj
 .debug_aranges
                0x00000d10       0xe8 CMakeFiles/objectExample.dir/D_/Pico_Downloads/pico-sdk/lib/tinyusb/src/portable/raspberrypi/rp2040/dcd_rp2040.c.obj
 .debug_aranges
                0x00000df8       0x58 CMakeFiles/objectExample.dir/D_/Pico_Downloads/pico-sdk/lib/tinyusb/src/portable/raspberrypi/rp2040/rp2040_usb.c.obj
 .debug_aranges
                0x00000e50      0x110 CMakeFiles/objectExample.dir/D_/Pico_Downloads/pico-sdk/lib/tinyusb/src/device/usbd.c.obj
 .debug_aranges
                0x00000f60       0x50 CMakeFiles/objectExample.dir/D_/Pico_Downloads/pico-sdk/lib/tinyusb/src/device/usbd_control.c.obj
 .debug_aranges
                0x00000fb0       0xa8 CMakeFiles/objectExample.dir/D_/Pico_Downloads/pico-sdk/lib/tinyusb/src/class/cdc/cdc_device.c.obj
 .debug_aranges
                0x00001058       0x38 CMakeFiles/objectExample.dir/D_/Pico_Downloads/pico-sdk/lib/tinyusb/src/tusb.c.obj
 .debug_aranges
                0x00001090       0xe0 CMakeFiles/objectExample.dir/D_/Pico_Downloads/pico-sdk/lib/tinyusb/src/common/tusb_fifo.c.obj
 .debug_aranges
                0x00001170       0x30 ..\ultrasonic\libpico_ultrasonic_object.a(ultrasonicObject.cpp.obj)
 .debug_aranges
                0x000011a0       0x38 ..\ultrasonic\libpico_ultrasonic_object.a(ultrasonic.c.obj)

.debug_ranges   0x00000000     0x2d98
 .debug_ranges  0x00000000       0x20 CMakeFiles/objectExample.dir/objectExample.cpp.obj
 .debug_ranges  0x00000020       0xa8 CMakeFiles/objectExample.dir/D_/Pico_Downloads/pico-sdk/src/rp2_common/hardware_gpio/gpio.c.obj
 .debug_ranges  0x000000c8       0xd8 CMakeFiles/objectExample.dir/D_/Pico_Downloads/pico-sdk/src/rp2_common/hardware_claim/claim.c.obj
 .debug_ranges  0x000001a0       0xb8 CMakeFiles/objectExample.dir/D_/Pico_Downloads/pico-sdk/src/rp2_common/hardware_sync/sync.c.obj
 .debug_ranges  0x00000258       0x18 CMakeFiles/objectExample.dir/D_/Pico_Downloads/pico-sdk/src/rp2_common/pico_platform/platform.c.obj
 .debug_ranges  0x00000270      0x7e8 CMakeFiles/objectExample.dir/D_/Pico_Downloads/pico-sdk/src/common/pico_time/time.c.obj
 .debug_ranges  0x00000a58      0x2f0 CMakeFiles/objectExample.dir/D_/Pico_Downloads/pico-sdk/src/rp2_common/hardware_timer/timer.c.obj
 .debug_ranges  0x00000d48       0x10 CMakeFiles/objectExample.dir/D_/Pico_Downloads/pico-sdk/src/common/pico_sync/lock_core.c.obj
 .debug_ranges  0x00000d58      0x340 CMakeFiles/objectExample.dir/D_/Pico_Downloads/pico-sdk/src/common/pico_sync/mutex.c.obj
 .debug_ranges  0x00001098       0x38 CMakeFiles/objectExample.dir/D_/Pico_Downloads/pico-sdk/src/common/pico_sync/critical_section.c.obj
 .debug_ranges  0x000010d0      0x240 CMakeFiles/objectExample.dir/D_/Pico_Downloads/pico-sdk/src/common/pico_util/pheap.c.obj
 .debug_ranges  0x00001310       0x68 CMakeFiles/objectExample.dir/D_/Pico_Downloads/pico-sdk/src/rp2_common/pico_runtime/runtime.c.obj
 .debug_ranges  0x00001378       0x78 CMakeFiles/objectExample.dir/D_/Pico_Downloads/pico-sdk/src/rp2_common/hardware_clocks/clocks.c.obj
 .debug_ranges  0x000013f0       0x40 CMakeFiles/objectExample.dir/D_/Pico_Downloads/pico-sdk/src/rp2_common/hardware_watchdog/watchdog.c.obj
 .debug_ranges  0x00001430       0x20 CMakeFiles/objectExample.dir/D_/Pico_Downloads/pico-sdk/src/rp2_common/hardware_xosc/xosc.c.obj
 .debug_ranges  0x00001450       0x18 CMakeFiles/objectExample.dir/D_/Pico_Downloads/pico-sdk/src/rp2_common/hardware_pll/pll.c.obj
 .debug_ranges  0x00001468      0x3b0 CMakeFiles/objectExample.dir/D_/Pico_Downloads/pico-sdk/src/rp2_common/hardware_irq/irq.c.obj
 .debug_ranges  0x00001818      0x108 CMakeFiles/objectExample.dir/D_/Pico_Downloads/pico-sdk/src/rp2_common/pico_printf/printf.c.obj
 .debug_ranges  0x00001920       0x60 CMakeFiles/objectExample.dir/D_/Pico_Downloads/pico-sdk/src/rp2_common/pico_bit_ops/bit_ops_aeabi.S.obj
 .debug_ranges  0x00001980       0x38 CMakeFiles/objectExample.dir/D_/Pico_Downloads/pico-sdk/src/rp2_common/pico_bootrom/bootrom.c.obj
 .debug_ranges  0x000019b8       0x38 CMakeFiles/objectExample.dir/D_/Pico_Downloads/pico-sdk/src/rp2_common/pico_divider/divider.S.obj
 .debug_ranges  0x000019f0      0x138 CMakeFiles/objectExample.dir/D_/Pico_Downloads/pico-sdk/src/rp2_common/pico_double/double_aeabi.S.obj
 .debug_ranges  0x00001b28       0x30 CMakeFiles/objectExample.dir/D_/Pico_Downloads/pico-sdk/src/rp2_common/pico_double/double_init_rom.c.obj
 .debug_ranges  0x00001b58       0xc0 CMakeFiles/objectExample.dir/D_/Pico_Downloads/pico-sdk/src/rp2_common/pico_double/double_v1_rom_shim.S.obj
 .debug_ranges  0x00001c18      0x128 CMakeFiles/objectExample.dir/D_/Pico_Downloads/pico-sdk/src/rp2_common/pico_float/float_aeabi.S.obj
 .debug_ranges  0x00001d40       0x28 CMakeFiles/objectExample.dir/D_/Pico_Downloads/pico-sdk/src/rp2_common/pico_float/float_init_rom.c.obj
 .debug_ranges  0x00001d68       0x48 CMakeFiles/objectExample.dir/D_/Pico_Downloads/pico-sdk/src/rp2_common/pico_float/float_v1_rom_shim.S.obj
 .debug_ranges  0x00001db0       0x20 CMakeFiles/objectExample.dir/D_/Pico_Downloads/pico-sdk/src/rp2_common/pico_malloc/pico_malloc.c.obj
 .debug_ranges  0x00001dd0       0x30 CMakeFiles/objectExample.dir/D_/Pico_Downloads/pico-sdk/src/rp2_common/pico_mem_ops/mem_ops_aeabi.S.obj
 .debug_ranges  0x00001e00       0x20 CMakeFiles/objectExample.dir/D_/Pico_Downloads/pico-sdk/src/rp2_common/pico_standard_link/crt0.S.obj
 .debug_ranges  0x00001e20      0x120 CMakeFiles/objectExample.dir/D_/Pico_Downloads/pico-sdk/src/rp2_common/pico_stdio/stdio.c.obj
 .debug_ranges  0x00001f40       0x48 CMakeFiles/objectExample.dir/D_/Pico_Downloads/pico-sdk/src/rp2_common/pico_stdio_usb/stdio_usb.c.obj
 .debug_ranges  0x00001f88       0x20 CMakeFiles/objectExample.dir/D_/Pico_Downloads/pico-sdk/src/rp2_common/pico_stdio_usb/stdio_usb_descriptors.c.obj
 .debug_ranges  0x00001fa8      0x108 CMakeFiles/objectExample.dir/D_/Pico_Downloads/pico-sdk/lib/tinyusb/src/portable/raspberrypi/rp2040/dcd_rp2040.c.obj
 .debug_ranges  0x000020b0       0x60 CMakeFiles/objectExample.dir/D_/Pico_Downloads/pico-sdk/lib/tinyusb/src/portable/raspberrypi/rp2040/rp2040_usb.c.obj
 .debug_ranges  0x00002110      0x950 CMakeFiles/objectExample.dir/D_/Pico_Downloads/pico-sdk/lib/tinyusb/src/device/usbd.c.obj
 .debug_ranges  0x00002a60       0x88 CMakeFiles/objectExample.dir/D_/Pico_Downloads/pico-sdk/lib/tinyusb/src/device/usbd_control.c.obj
 .debug_ranges  0x00002ae8      0x110 CMakeFiles/objectExample.dir/D_/Pico_Downloads/pico-sdk/lib/tinyusb/src/class/cdc/cdc_device.c.obj
 .debug_ranges  0x00002bf8       0x88 CMakeFiles/objectExample.dir/D_/Pico_Downloads/pico-sdk/lib/tinyusb/src/tusb.c.obj
 .debug_ranges  0x00002c80       0xd0 CMakeFiles/objectExample.dir/D_/Pico_Downloads/pico-sdk/lib/tinyusb/src/common/tusb_fifo.c.obj
 .debug_ranges  0x00002d50       0x20 ..\ultrasonic\libpico_ultrasonic_object.a(ultrasonicObject.cpp.obj)
 .debug_ranges  0x00002d70       0x28 ..\ultrasonic\libpico_ultrasonic_object.a(ultrasonic.c.obj)

.debug_line     0x00000000    0x114d7
 .debug_line    0x00000000      0x243 CMakeFiles/objectExample.dir/objectExample.cpp.obj
 .debug_line    0x00000243      0x830 CMakeFiles/objectExample.dir/D_/Pico_Downloads/pico-sdk/src/rp2_common/hardware_gpio/gpio.c.obj
 .debug_line    0x00000a73      0x430 CMakeFiles/objectExample.dir/D_/Pico_Downloads/pico-sdk/src/rp2_common/hardware_claim/claim.c.obj
 .debug_line    0x00000ea3      0x3cd CMakeFiles/objectExample.dir/D_/Pico_Downloads/pico-sdk/src/rp2_common/hardware_sync/sync.c.obj
 .debug_line    0x00001270      0x20c CMakeFiles/objectExample.dir/D_/Pico_Downloads/pico-sdk/src/rp2_common/pico_platform/platform.c.obj
 .debug_line    0x0000147c     0x163f CMakeFiles/objectExample.dir/D_/Pico_Downloads/pico-sdk/src/common/pico_time/time.c.obj
 .debug_line    0x00002abb      0x9b0 CMakeFiles/objectExample.dir/D_/Pico_Downloads/pico-sdk/src/rp2_common/hardware_timer/timer.c.obj
 .debug_line    0x0000346b      0x240 CMakeFiles/objectExample.dir/D_/Pico_Downloads/pico-sdk/src/common/pico_sync/lock_core.c.obj
 .debug_line    0x000036ab      0x794 CMakeFiles/objectExample.dir/D_/Pico_Downloads/pico-sdk/src/common/pico_sync/mutex.c.obj
 .debug_line    0x00003e3f      0x264 CMakeFiles/objectExample.dir/D_/Pico_Downloads/pico-sdk/src/common/pico_sync/critical_section.c.obj
 .debug_line    0x000040a3      0x859 CMakeFiles/objectExample.dir/D_/Pico_Downloads/pico-sdk/src/common/pico_util/pheap.c.obj
 .debug_line    0x000048fc      0x766 CMakeFiles/objectExample.dir/D_/Pico_Downloads/pico-sdk/src/rp2_common/pico_runtime/runtime.c.obj
 .debug_line    0x00005062      0x9a0 CMakeFiles/objectExample.dir/D_/Pico_Downloads/pico-sdk/src/rp2_common/hardware_clocks/clocks.c.obj
 .debug_line    0x00005a02      0x37b CMakeFiles/objectExample.dir/D_/Pico_Downloads/pico-sdk/src/rp2_common/hardware_watchdog/watchdog.c.obj
 .debug_line    0x00005d7d      0x27a CMakeFiles/objectExample.dir/D_/Pico_Downloads/pico-sdk/src/rp2_common/hardware_xosc/xosc.c.obj
 .debug_line    0x00005ff7      0x35c CMakeFiles/objectExample.dir/D_/Pico_Downloads/pico-sdk/src/rp2_common/hardware_pll/pll.c.obj
 .debug_line    0x00006353      0xd40 CMakeFiles/objectExample.dir/D_/Pico_Downloads/pico-sdk/src/rp2_common/hardware_irq/irq.c.obj
 .debug_line    0x00007093       0x84 CMakeFiles/objectExample.dir/D_/Pico_Downloads/pico-sdk/src/rp2_common/hardware_irq/irq_handler_chain.S.obj
 .debug_line    0x00007117     0x11c8 CMakeFiles/objectExample.dir/D_/Pico_Downloads/pico-sdk/src/rp2_common/pico_printf/printf.c.obj
 .debug_line    0x000082df      0x147 CMakeFiles/objectExample.dir/D_/Pico_Downloads/pico-sdk/src/rp2_common/pico_bit_ops/bit_ops_aeabi.S.obj
 .debug_line    0x00008426      0x1bb CMakeFiles/objectExample.dir/D_/Pico_Downloads/pico-sdk/src/rp2_common/pico_bootrom/bootrom.c.obj
 .debug_line    0x000085e1      0x2c8 CMakeFiles/objectExample.dir/D_/Pico_Downloads/pico-sdk/src/rp2_common/pico_divider/divider.S.obj
 .debug_line    0x000088a9      0x403 CMakeFiles/objectExample.dir/D_/Pico_Downloads/pico-sdk/src/rp2_common/pico_double/double_aeabi.S.obj
 .debug_line    0x00008cac      0x2fe CMakeFiles/objectExample.dir/D_/Pico_Downloads/pico-sdk/src/rp2_common/pico_double/double_init_rom.c.obj
 .debug_line    0x00008faa      0x69e CMakeFiles/objectExample.dir/D_/Pico_Downloads/pico-sdk/src/rp2_common/pico_double/double_v1_rom_shim.S.obj
 .debug_line    0x00009648       0x97 CMakeFiles/objectExample.dir/D_/Pico_Downloads/pico-sdk/src/rp2_common/pico_int64_ops/pico_int64_ops_aeabi.S.obj
 .debug_line    0x000096df      0x3c1 CMakeFiles/objectExample.dir/D_/Pico_Downloads/pico-sdk/src/rp2_common/pico_float/float_aeabi.S.obj
 .debug_line    0x00009aa0      0x300 CMakeFiles/objectExample.dir/D_/Pico_Downloads/pico-sdk/src/rp2_common/pico_float/float_init_rom.c.obj
 .debug_line    0x00009da0      0x1c7 CMakeFiles/objectExample.dir/D_/Pico_Downloads/pico-sdk/src/rp2_common/pico_float/float_v1_rom_shim.S.obj
 .debug_line    0x00009f67      0x1c1 CMakeFiles/objectExample.dir/D_/Pico_Downloads/pico-sdk/src/rp2_common/pico_malloc/pico_malloc.c.obj
 .debug_line    0x0000a128       0xc1 CMakeFiles/objectExample.dir/D_/Pico_Downloads/pico-sdk/src/rp2_common/pico_mem_ops/mem_ops_aeabi.S.obj
 .debug_line    0x0000a1e9       0xd2 CMakeFiles/objectExample.dir/D_/Pico_Downloads/pico-sdk/src/rp2_common/pico_standard_link/crt0.S.obj
 .debug_line    0x0000a2bb      0x192 CMakeFiles/objectExample.dir/D_/Pico_Downloads/pico-sdk/src/rp2_common/pico_standard_link/binary_info.c.obj
 .debug_line    0x0000a44d      0xbcb CMakeFiles/objectExample.dir/D_/Pico_Downloads/pico-sdk/src/rp2_common/pico_stdio/stdio.c.obj
 .debug_line    0x0000b018      0x7d4 CMakeFiles/objectExample.dir/D_/Pico_Downloads/pico-sdk/src/rp2_common/pico_stdio_usb/stdio_usb.c.obj
 .debug_line    0x0000b7ec      0x266 CMakeFiles/objectExample.dir/D_/Pico_Downloads/pico-sdk/src/rp2_common/pico_stdio_usb/stdio_usb_descriptors.c.obj
 .debug_line    0x0000ba52      0xb70 CMakeFiles/objectExample.dir/D_/Pico_Downloads/pico-sdk/lib/tinyusb/src/portable/raspberrypi/rp2040/dcd_rp2040.c.obj
 .debug_line    0x0000c5c2      0x6f8 CMakeFiles/objectExample.dir/D_/Pico_Downloads/pico-sdk/lib/tinyusb/src/portable/raspberrypi/rp2040/rp2040_usb.c.obj
 .debug_line    0x0000ccba     0x1ff0 CMakeFiles/objectExample.dir/D_/Pico_Downloads/pico-sdk/lib/tinyusb/src/device/usbd.c.obj
 .debug_line    0x0000ecaa      0x570 CMakeFiles/objectExample.dir/D_/Pico_Downloads/pico-sdk/lib/tinyusb/src/device/usbd_control.c.obj
 .debug_line    0x0000f21a      0xe23 CMakeFiles/objectExample.dir/D_/Pico_Downloads/pico-sdk/lib/tinyusb/src/class/cdc/cdc_device.c.obj
 .debug_line    0x0001003d      0x42c CMakeFiles/objectExample.dir/D_/Pico_Downloads/pico-sdk/lib/tinyusb/src/tusb.c.obj
 .debug_line    0x00010469      0xa94 CMakeFiles/objectExample.dir/D_/Pico_Downloads/pico-sdk/lib/tinyusb/src/common/tusb_fifo.c.obj
 .debug_line    0x00010efd       0xe6 ..\ultrasonic\libpico_ultrasonic_object.a(ultrasonicObject.cpp.obj)
 .debug_line    0x00010fe3      0x4f4 ..\ultrasonic\libpico_ultrasonic_object.a(ultrasonic.c.obj)

.debug_str      0x00000000     0x5e77
 .debug_str     0x00000000      0x28b CMakeFiles/objectExample.dir/objectExample.cpp.obj
                                0x2e3 (size before relaxing)
 .debug_str     0x0000028b      0x662 CMakeFiles/objectExample.dir/D_/Pico_Downloads/pico-sdk/src/rp2_common/hardware_gpio/gpio.c.obj
                                0x7b7 (size before relaxing)
 .debug_str     0x000008ed      0x1ca CMakeFiles/objectExample.dir/D_/Pico_Downloads/pico-sdk/src/rp2_common/hardware_claim/claim.c.obj
                                0x369 (size before relaxing)
 .debug_str     0x00000ab7       0xd7 CMakeFiles/objectExample.dir/D_/Pico_Downloads/pico-sdk/src/rp2_common/hardware_sync/sync.c.obj
                                0x32d (size before relaxing)
 .debug_str     0x00000b8e       0x81 CMakeFiles/objectExample.dir/D_/Pico_Downloads/pico-sdk/src/rp2_common/pico_platform/platform.c.obj
                                0x220 (size before relaxing)
 .debug_str     0x00000c0f      0x67d CMakeFiles/objectExample.dir/D_/Pico_Downloads/pico-sdk/src/common/pico_time/time.c.obj
                                0xa73 (size before relaxing)
 .debug_str     0x0000128c      0x13c CMakeFiles/objectExample.dir/D_/Pico_Downloads/pico-sdk/src/rp2_common/hardware_timer/timer.c.obj
                                0x625 (size before relaxing)
 .debug_str     0x000013c8       0x5c CMakeFiles/objectExample.dir/D_/Pico_Downloads/pico-sdk/src/common/pico_sync/lock_core.c.obj
                                0x20e (size before relaxing)
 .debug_str     0x00001424       0xe6 CMakeFiles/objectExample.dir/D_/Pico_Downloads/pico-sdk/src/common/pico_sync/mutex.c.obj
                                0x487 (size before relaxing)
 .debug_str     0x0000150a       0xd3 CMakeFiles/objectExample.dir/D_/Pico_Downloads/pico-sdk/src/common/pico_sync/critical_section.c.obj
                                0x2c3 (size before relaxing)
 .debug_str     0x000015dd       0xe3 CMakeFiles/objectExample.dir/D_/Pico_Downloads/pico-sdk/src/common/pico_util/pheap.c.obj
                                0x3d5 (size before relaxing)
 .debug_str     0x000016c0      0x2ca CMakeFiles/objectExample.dir/D_/Pico_Downloads/pico-sdk/src/rp2_common/pico_runtime/runtime.c.obj
                                0x5b6 (size before relaxing)
 .debug_str     0x0000198a      0x266 CMakeFiles/objectExample.dir/D_/Pico_Downloads/pico-sdk/src/rp2_common/hardware_clocks/clocks.c.obj
                                0x6b2 (size before relaxing)
 .debug_str     0x00001bf0      0x111 CMakeFiles/objectExample.dir/D_/Pico_Downloads/pico-sdk/src/rp2_common/hardware_watchdog/watchdog.c.obj
                                0x309 (size before relaxing)
 .debug_str     0x00001d01       0x83 CMakeFiles/objectExample.dir/D_/Pico_Downloads/pico-sdk/src/rp2_common/hardware_xosc/xosc.c.obj
                                0x244 (size before relaxing)
 .debug_str     0x00001d84       0x85 CMakeFiles/objectExample.dir/D_/Pico_Downloads/pico-sdk/src/rp2_common/hardware_pll/pll.c.obj
                                0x287 (size before relaxing)
 .debug_str     0x00001e09      0x2e8 CMakeFiles/objectExample.dir/D_/Pico_Downloads/pico-sdk/src/rp2_common/hardware_irq/irq.c.obj
                                0x6bf (size before relaxing)
 .debug_str     0x000020f1       0x59 CMakeFiles/objectExample.dir/D_/Pico_Downloads/pico-sdk/src/rp2_common/hardware_irq/irq_handler_chain.S.obj
                                 0x7b (size before relaxing)
 .debug_str     0x0000214a      0x26d CMakeFiles/objectExample.dir/D_/Pico_Downloads/pico-sdk/src/rp2_common/pico_printf/printf.c.obj
                                0x480 (size before relaxing)
 .debug_str     0x000023b7       0x47 CMakeFiles/objectExample.dir/D_/Pico_Downloads/pico-sdk/src/rp2_common/pico_bit_ops/bit_ops_aeabi.S.obj
                                 0x77 (size before relaxing)
 .debug_str     0x000023fe       0xad CMakeFiles/objectExample.dir/D_/Pico_Downloads/pico-sdk/src/rp2_common/pico_bootrom/bootrom.c.obj
                                0x248 (size before relaxing)
 .debug_str     0x000024ab       0x41 CMakeFiles/objectExample.dir/D_/Pico_Downloads/pico-sdk/src/rp2_common/pico_divider/divider.S.obj
                                 0x71 (size before relaxing)
 .debug_str     0x000024ec       0x45 CMakeFiles/objectExample.dir/D_/Pico_Downloads/pico-sdk/src/rp2_common/pico_double/double_aeabi.S.obj
                                 0x75 (size before relaxing)
 .debug_str     0x00002531       0x91 CMakeFiles/objectExample.dir/D_/Pico_Downloads/pico-sdk/src/rp2_common/pico_double/double_init_rom.c.obj
                                0x282 (size before relaxing)
 .debug_str     0x000025c2       0x4b CMakeFiles/objectExample.dir/D_/Pico_Downloads/pico-sdk/src/rp2_common/pico_double/double_v1_rom_shim.S.obj
                                 0x7b (size before relaxing)
 .debug_str     0x0000260d       0x50 CMakeFiles/objectExample.dir/D_/Pico_Downloads/pico-sdk/src/rp2_common/pico_int64_ops/pico_int64_ops_aeabi.S.obj
                                 0x80 (size before relaxing)
 .debug_str     0x0000265d       0x43 CMakeFiles/objectExample.dir/D_/Pico_Downloads/pico-sdk/src/rp2_common/pico_float/float_aeabi.S.obj
                                 0x73 (size before relaxing)
 .debug_str     0x000026a0       0x8d CMakeFiles/objectExample.dir/D_/Pico_Downloads/pico-sdk/src/rp2_common/pico_float/float_init_rom.c.obj
                                0x2ba (size before relaxing)
 .debug_str     0x0000272d       0x49 CMakeFiles/objectExample.dir/D_/Pico_Downloads/pico-sdk/src/rp2_common/pico_float/float_v1_rom_shim.S.obj
                                 0x79 (size before relaxing)
 .debug_str     0x00002776       0xa0 CMakeFiles/objectExample.dir/D_/Pico_Downloads/pico-sdk/src/rp2_common/pico_malloc/pico_malloc.c.obj
                                0x20f (size before relaxing)
 .debug_str     0x00002816       0x47 CMakeFiles/objectExample.dir/D_/Pico_Downloads/pico-sdk/src/rp2_common/pico_mem_ops/mem_ops_aeabi.S.obj
                                 0x77 (size before relaxing)
 .debug_str     0x0000285d       0x44 CMakeFiles/objectExample.dir/D_/Pico_Downloads/pico-sdk/src/rp2_common/pico_standard_link/crt0.S.obj
                                 0x74 (size before relaxing)
 .debug_str     0x000028a1      0x227 CMakeFiles/objectExample.dir/D_/Pico_Downloads/pico-sdk/src/rp2_common/pico_standard_link/binary_info.c.obj
                                0x3e9 (size before relaxing)
 .debug_str     0x00002ac8      0x2c3 CMakeFiles/objectExample.dir/D_/Pico_Downloads/pico-sdk/src/rp2_common/pico_stdio/stdio.c.obj
                                0x71b (size before relaxing)
 .debug_str     0x00002d8b      0x349 CMakeFiles/objectExample.dir/D_/Pico_Downloads/pico-sdk/src/rp2_common/pico_stdio_usb/stdio_usb.c.obj
                                0x836 (size before relaxing)
 .debug_str     0x000030d4      0xcab CMakeFiles/objectExample.dir/D_/Pico_Downloads/pico-sdk/src/rp2_common/pico_stdio_usb/stdio_usb_descriptors.c.obj
                                0xf69 (size before relaxing)
 .debug_str     0x00003d7f      0x973 CMakeFiles/objectExample.dir/D_/Pico_Downloads/pico-sdk/lib/tinyusb/src/portable/raspberrypi/rp2040/dcd_rp2040.c.obj
                                0xdf9 (size before relaxing)
 .debug_str     0x000046f2      0x169 CMakeFiles/objectExample.dir/D_/Pico_Downloads/pico-sdk/lib/tinyusb/src/portable/raspberrypi/rp2040/rp2040_usb.c.obj
                                0x8a2 (size before relaxing)
 .debug_str     0x0000485b      0x9ef CMakeFiles/objectExample.dir/D_/Pico_Downloads/pico-sdk/lib/tinyusb/src/device/usbd.c.obj
                               0x171e (size before relaxing)
 .debug_str     0x0000524a       0xdd CMakeFiles/objectExample.dir/D_/Pico_Downloads/pico-sdk/lib/tinyusb/src/device/usbd_control.c.obj
                                0x5dc (size before relaxing)
 .debug_str     0x00005327      0x764 CMakeFiles/objectExample.dir/D_/Pico_Downloads/pico-sdk/lib/tinyusb/src/class/cdc/cdc_device.c.obj
                               0x16d3 (size before relaxing)
 .debug_str     0x00005a8b       0x9d CMakeFiles/objectExample.dir/D_/Pico_Downloads/pico-sdk/lib/tinyusb/src/tusb.c.obj
                                0x3cd (size before relaxing)
 .debug_str     0x00005b28      0x1b2 CMakeFiles/objectExample.dir/D_/Pico_Downloads/pico-sdk/lib/tinyusb/src/common/tusb_fifo.c.obj
                                0x567 (size before relaxing)
 .debug_str     0x00005cda       0xad ..\ultrasonic\libpico_ultrasonic_object.a(ultrasonicObject.cpp.obj)
                                0x1f6 (size before relaxing)
 .debug_str     0x00005d87       0xf0 ..\ultrasonic\libpico_ultrasonic_object.a(ultrasonic.c.obj)
                                0x555 (size before relaxing)

.debug_frame    0x00000000     0x2478
 .debug_frame   0x00000000       0x58 CMakeFiles/objectExample.dir/objectExample.cpp.obj
 .debug_frame   0x00000058      0x178 CMakeFiles/objectExample.dir/D_/Pico_Downloads/pico-sdk/src/rp2_common/hardware_gpio/gpio.c.obj
 .debug_frame   0x000001d0       0xa8 CMakeFiles/objectExample.dir/D_/Pico_Downloads/pico-sdk/src/rp2_common/hardware_claim/claim.c.obj
 .debug_frame   0x00000278       0xac CMakeFiles/objectExample.dir/D_/Pico_Downloads/pico-sdk/src/rp2_common/hardware_sync/sync.c.obj
 .debug_frame   0x00000324       0x38 CMakeFiles/objectExample.dir/D_/Pico_Downloads/pico-sdk/src/rp2_common/pico_platform/platform.c.obj
 .debug_frame   0x0000035c      0x280 CMakeFiles/objectExample.dir/D_/Pico_Downloads/pico-sdk/src/common/pico_time/time.c.obj
 .debug_frame   0x000005dc      0x104 CMakeFiles/objectExample.dir/D_/Pico_Downloads/pico-sdk/src/rp2_common/hardware_timer/timer.c.obj
 .debug_frame   0x000006e0       0x28 CMakeFiles/objectExample.dir/D_/Pico_Downloads/pico-sdk/src/common/pico_sync/lock_core.c.obj
 .debug_frame   0x00000708       0xb0 CMakeFiles/objectExample.dir/D_/Pico_Downloads/pico-sdk/src/common/pico_sync/mutex.c.obj
 .debug_frame   0x000007b8       0x58 CMakeFiles/objectExample.dir/D_/Pico_Downloads/pico-sdk/src/common/pico_sync/critical_section.c.obj
 .debug_frame   0x00000810      0x14c CMakeFiles/objectExample.dir/D_/Pico_Downloads/pico-sdk/src/common/pico_util/pheap.c.obj
 .debug_frame   0x0000095c       0xdc CMakeFiles/objectExample.dir/D_/Pico_Downloads/pico-sdk/src/rp2_common/pico_runtime/runtime.c.obj
 .debug_frame   0x00000a38      0x128 CMakeFiles/objectExample.dir/D_/Pico_Downloads/pico-sdk/src/rp2_common/hardware_clocks/clocks.c.obj
 .debug_frame   0x00000b60       0x98 CMakeFiles/objectExample.dir/D_/Pico_Downloads/pico-sdk/src/rp2_common/hardware_watchdog/watchdog.c.obj
 .debug_frame   0x00000bf8       0x40 CMakeFiles/objectExample.dir/D_/Pico_Downloads/pico-sdk/src/rp2_common/hardware_xosc/xosc.c.obj
 .debug_frame   0x00000c38       0x48 CMakeFiles/objectExample.dir/D_/Pico_Downloads/pico-sdk/src/rp2_common/hardware_pll/pll.c.obj
 .debug_frame   0x00000c80      0x180 CMakeFiles/objectExample.dir/D_/Pico_Downloads/pico-sdk/src/rp2_common/hardware_irq/irq.c.obj
 .debug_frame   0x00000e00      0x1f8 CMakeFiles/objectExample.dir/D_/Pico_Downloads/pico-sdk/src/rp2_common/pico_printf/printf.c.obj
 .debug_frame   0x00000ff8       0x64 CMakeFiles/objectExample.dir/D_/Pico_Downloads/pico-sdk/src/rp2_common/pico_bootrom/bootrom.c.obj
 .debug_frame   0x0000105c       0x2c CMakeFiles/objectExample.dir/D_/Pico_Downloads/pico-sdk/src/rp2_common/pico_double/double_init_rom.c.obj
 .debug_frame   0x00001088       0x2c CMakeFiles/objectExample.dir/D_/Pico_Downloads/pico-sdk/src/rp2_common/pico_float/float_init_rom.c.obj
 .debug_frame   0x000010b4       0x58 CMakeFiles/objectExample.dir/D_/Pico_Downloads/pico-sdk/src/rp2_common/pico_malloc/pico_malloc.c.obj
 .debug_frame   0x0000110c      0x21c CMakeFiles/objectExample.dir/D_/Pico_Downloads/pico-sdk/src/rp2_common/pico_stdio/stdio.c.obj
 .debug_frame   0x00001328       0xa4 CMakeFiles/objectExample.dir/D_/Pico_Downloads/pico-sdk/src/rp2_common/pico_stdio_usb/stdio_usb.c.obj
 .debug_frame   0x000013cc       0x48 CMakeFiles/objectExample.dir/D_/Pico_Downloads/pico-sdk/src/rp2_common/pico_stdio_usb/stdio_usb_descriptors.c.obj
 .debug_frame   0x00001414      0x294 CMakeFiles/objectExample.dir/D_/Pico_Downloads/pico-sdk/lib/tinyusb/src/portable/raspberrypi/rp2040/dcd_rp2040.c.obj
 .debug_frame   0x000016a8       0xd8 CMakeFiles/objectExample.dir/D_/Pico_Downloads/pico-sdk/lib/tinyusb/src/portable/raspberrypi/rp2040/rp2040_usb.c.obj
 .debug_frame   0x00001780      0x368 CMakeFiles/objectExample.dir/D_/Pico_Downloads/pico-sdk/lib/tinyusb/src/device/usbd.c.obj
 .debug_frame   0x00001ae8       0xcc CMakeFiles/objectExample.dir/D_/Pico_Downloads/pico-sdk/lib/tinyusb/src/device/usbd_control.c.obj
 .debug_frame   0x00001bb4      0x200 CMakeFiles/objectExample.dir/D_/Pico_Downloads/pico-sdk/lib/tinyusb/src/class/cdc/cdc_device.c.obj
 .debug_frame   0x00001db4       0x80 CMakeFiles/objectExample.dir/D_/Pico_Downloads/pico-sdk/lib/tinyusb/src/tusb.c.obj
 .debug_frame   0x00001e34      0x2bc CMakeFiles/objectExample.dir/D_/Pico_Downloads/pico-sdk/lib/tinyusb/src/common/tusb_fifo.c.obj
 .debug_frame   0x000020f0       0x58 ..\ultrasonic\libpico_ultrasonic_object.a(ultrasonicObject.cpp.obj)
 .debug_frame   0x00002148       0x7c ..\ultrasonic\libpico_ultrasonic_object.a(ultrasonic.c.obj)
 .debug_frame   0x000021c4       0x28 c:/progra~2/gnuarm~1/102020~1/bin/../lib/gcc/arm-none-eabi/10.2.1/../../../../arm-none-eabi/lib/thumb/v6-m/nofp\libg.a(lib_a-calloc.o)
 .debug_frame   0x000021ec       0x28 c:/progra~2/gnuarm~1/102020~1/bin/../lib/gcc/arm-none-eabi/10.2.1/../../../../arm-none-eabi/lib/thumb/v6-m/nofp\libg.a(lib_a-callocr.o)
 .debug_frame   0x00002214       0x40 c:/progra~2/gnuarm~1/102020~1/bin/../lib/gcc/arm-none-eabi/10.2.1/../../../../arm-none-eabi/lib/thumb/v6-m/nofp\libg.a(lib_a-malloc.o)
 .debug_frame   0x00002254       0x3c c:/progra~2/gnuarm~1/102020~1/bin/../lib/gcc/arm-none-eabi/10.2.1/../../../../arm-none-eabi/lib/thumb/v6-m/nofp\libg.a(lib_a-mallocr.o)
 .debug_frame   0x00002290       0x40 c:/progra~2/gnuarm~1/102020~1/bin/../lib/gcc/arm-none-eabi/10.2.1/../../../../arm-none-eabi/lib/thumb/v6-m/nofp\libg.a(lib_a-mlock.o)
 .debug_frame   0x000022d0       0x2c c:/progra~2/gnuarm~1/102020~1/bin/../lib/gcc/arm-none-eabi/10.2.1/../../../../arm-none-eabi/lib/thumb/v6-m/nofp\libg.a(lib_a-sbrkr.o)
 .debug_frame   0x000022fc       0x28 c:/progra~2/gnuarm~1/102020~1/bin/../lib/gcc/arm-none-eabi/10.2.1/../../../../arm-none-eabi/lib/thumb/v6-m/nofp\libg.a(lib_a-strlen-stub.o)
 .debug_frame   0x00002324       0x54 c:/progra~2/gnuarm~1/102020~1/bin/../lib/gcc/arm-none-eabi/10.2.1/../../../../arm-none-eabi/lib/thumb/v6-m/nofp\libg.a(lib_a-freer.o)
 .debug_frame   0x00002378       0xb0 c:/progra~2/gnuarm~1/102020~1/bin/../lib/gcc/arm-none-eabi/10.2.1/../../../../arm-none-eabi/lib/thumb/v6-m/nofp\libg.a(lib_a-lock.o)
 .debug_frame   0x00002428       0x50 c:/progra~2/gnuarm~1/102020~1/bin/../lib/gcc/arm-none-eabi/10.2.1/../../../../arm-none-eabi/lib/thumb/v6-m/nofp\libg.a(lib_a-reent.o)
